0000 0000000 min_caml_start:
0000 0000000 	la	%r1, const_array.6367
0002 0000008 	addi	%r2, %r0, 1
0003 000000c 	addi	%r3, %r0, 1
0004 0000010 	addi	%r1, %r1, 0
0005 0000014 	lw	%r1, 0(%r1)
0006 0000018 	sw	%r2, 0(%r30)
0007 000001c 	addi	%r2, %r1, 0
0008 0000020 	addi	%r1, %r3, 0
0009 0000024 	sw	%r31, 1(%r30)
0010 0000028 	addi	%r30, %r30, 2
0011 000002c 	jal	min_caml_create_array
0012 0000030 	addi	%r30, %r30, -2
0013 0000034 	lw	%r31, 1(%r30)
0014 0000038 	addi	%r2, %r1, 0
0015 000003c 	lw	%r1, 0(%r30)
0016 0000040 	sw	%r31, 1(%r30)
0017 0000044 	addi	%r30, %r30, 2
0018 0000048 	jal	min_caml_create_array
0019 000004c 	addi	%r30, %r30, -2
0020 0000050 	lw	%r31, 1(%r30)
0021 0000054 	addi	%r2, %r29, 0
0022 0000058 	addi	%r29, %r29, 2
0023 000005c 	la	%r3, read_parameter.2803
0025 0000064 	sw	%r3, 0(%r2)
0026 0000068 	sw	%r1, 1(%r2)
0027 000006c 	addi	%r3, %r29, 0
0028 0000070 	addi	%r29, %r29, 2
0029 0000074 	la	%r4, judge_intersection.2955
0031 000007c 	sw	%r4, 0(%r3)
0032 0000080 	sw	%r1, 1(%r3)
0033 0000084 	addi	%r4, %r29, 0
0034 0000088 	addi	%r29, %r29, 2
0035 000008c 	la	%r5, judge_intersection_fast.2969
0037 0000094 	sw	%r5, 0(%r4)
0038 0000098 	sw	%r1, 1(%r4)
0039 000009c 	addi	%r5, %r29, 0
0040 00000a0 	addi	%r29, %r29, 3
0041 00000a4 	la	%r6, trace_reflections.2987
0043 00000ac 	sw	%r6, 0(%r5)
0044 00000b0 	sw	%r1, 2(%r5)
0045 00000b4 	sw	%r4, 1(%r5)
0046 00000b8 	addi	%r6, %r29, 0
0047 00000bc 	addi	%r29, %r29, 4
0048 00000c0 	la	%r7, trace_ray.2992
0050 00000c8 	sw	%r7, 0(%r6)
0051 00000cc 	sw	%r5, 3(%r6)
0052 00000d0 	sw	%r1, 2(%r6)
0053 00000d4 	sw	%r3, 1(%r6)
0054 00000d8 	addi	%r3, %r29, 0
0055 00000dc 	addi	%r29, %r29, 3
0056 00000e0 	la	%r5, trace_diffuse_ray.2998
0058 00000e8 	sw	%r5, 0(%r3)
0059 00000ec 	sw	%r1, 2(%r3)
0060 00000f0 	sw	%r4, 1(%r3)
0061 00000f4 	addi	%r1, %r29, 0
0062 00000f8 	addi	%r29, %r29, 2
0063 00000fc 	la	%r4, iter_trace_diffuse_rays.3001
0065 0000104 	sw	%r4, 0(%r1)
0066 0000108 	sw	%r3, 1(%r1)
0067 000010c 	addi	%r3, %r29, 0
0068 0000110 	addi	%r29, %r29, 2
0069 0000114 	la	%r4, trace_diffuse_rays.3006
0071 000011c 	sw	%r4, 0(%r3)
0072 0000120 	sw	%r1, 1(%r3)
0073 0000124 	addi	%r1, %r29, 0
0074 0000128 	addi	%r29, %r29, 2
0075 000012c 	la	%r4, trace_diffuse_ray_80percent.3010
0077 0000134 	sw	%r4, 0(%r1)
0078 0000138 	sw	%r3, 1(%r1)
0079 000013c 	addi	%r4, %r29, 0
0080 0000140 	addi	%r29, %r29, 2
0081 0000144 	la	%r5, calc_diffuse_using_1point.3014
0083 000014c 	sw	%r5, 0(%r4)
0084 0000150 	sw	%r1, 1(%r4)
0085 0000154 	addi	%r1, %r29, 0
0086 0000158 	addi	%r29, %r29, 2
0087 000015c 	la	%r5, do_without_neighbors.3023
0089 0000164 	sw	%r5, 0(%r1)
0090 0000168 	sw	%r4, 1(%r1)
0091 000016c 	addi	%r4, %r29, 0
0092 0000170 	addi	%r29, %r29, 2
0093 0000174 	la	%r5, try_exploit_neighbors.3039
0095 000017c 	sw	%r5, 0(%r4)
0096 0000180 	sw	%r1, 1(%r4)
0097 0000184 	addi	%r5, %r29, 0
0098 0000188 	addi	%r29, %r29, 2
0099 000018c 	la	%r7, pretrace_diffuse_rays.3052
0101 0000194 	sw	%r7, 0(%r5)
0102 0000198 	sw	%r3, 1(%r5)
0103 000019c 	addi	%r3, %r29, 0
0104 00001a0 	addi	%r29, %r29, 3
0105 00001a4 	la	%r7, pretrace_pixels.3055
0107 00001ac 	sw	%r7, 0(%r3)
0108 00001b0 	sw	%r6, 2(%r3)
0109 00001b4 	sw	%r5, 1(%r3)
0110 00001b8 	addi	%r5, %r29, 0
0111 00001bc 	addi	%r29, %r29, 2
0112 00001c0 	la	%r6, pretrace_line.3062
0114 00001c8 	sw	%r6, 0(%r5)
0115 00001cc 	sw	%r3, 1(%r5)
0116 00001d0 	addi	%r3, %r29, 0
0117 00001d4 	addi	%r29, %r29, 3
0118 00001d8 	la	%r6, scan_pixel.3066
0120 00001e0 	sw	%r6, 0(%r3)
0121 00001e4 	sw	%r4, 2(%r3)
0122 00001e8 	sw	%r1, 1(%r3)
0123 00001ec 	addi	%r1, %r29, 0
0124 00001f0 	addi	%r29, %r29, 3
0125 00001f4 	la	%r4, scan_line.3072
0127 00001fc 	sw	%r4, 0(%r1)
0128 0000200 	sw	%r3, 2(%r1)
0129 0000204 	sw	%r5, 1(%r1)
0130 0000208 	addi	%r27, %r29, 0
0131 000020c 	addi	%r29, %r29, 4
0132 0000210 	la	%r3, rt.3138
0134 0000218 	sw	%r3, 0(%r27)
0135 000021c 	sw	%r1, 3(%r27)
0136 0000220 	sw	%r2, 2(%r27)
0137 0000224 	sw	%r5, 1(%r27)
0138 0000228 	addi	%r1, %r0, 128
0139 000022c 	addi	%r2, %r0, 128
0140 0000230 	sw	%r31, 1(%r30)
0141 0000234 	lw	%r26, 0(%r27)
0142 0000238 	addi	%r30, %r30, 2
0143 000023c 	jalr	%r26
0144 0000240 	addi	%r30, %r30, -2
0145 0000244 	lw	%r31, 1(%r30)
0146 0000248 	addi	%r1, %r0, 0
0147 000024c 	in	%r1
0148 0000250 	j	min_caml_start
0149 0000254 fless.2627:
0149 0000254 	c.le.s	0, %f1, %f0
0150 0000258 	bf.s	0, bt.s_else.8914
0151 000025c 	addi	%r1, %r0, 0
0152 0000260 	jr	%r31
0153 0000264 bt.s_else.8914:
0153 0000264 	addi	%r1, %r0, 1
0154 0000268 	jr	%r31
0155 000026c fispos.2630:
0155 000026c 	la	%r1, l.6401
0157 0000274 	lw.s	%f1, 0(%r1)
0158 0000278 	c.le.s	0, %f0, %f1
0159 000027c 	bf.s	0, bt.s_else.8915
0160 0000280 	addi	%r1, %r0, 0
0161 0000284 	jr	%r31
0162 0000288 bt.s_else.8915:
0162 0000288 	addi	%r1, %r0, 1
0163 000028c 	jr	%r31
0164 0000290 fisneg.2632:
0164 0000290 	la	%r1, l.6401
0166 0000298 	lw.s	%f1, 0(%r1)
0167 000029c 	c.le.s	0, %f1, %f0
0168 00002a0 	bf.s	0, bt.s_else.8916
0169 00002a4 	addi	%r1, %r0, 0
0170 00002a8 	jr	%r31
0171 00002ac bt.s_else.8916:
0171 00002ac 	addi	%r1, %r0, 1
0172 00002b0 	jr	%r31
0173 00002b4 fiszero.2634:
0173 00002b4 	la	%r1, l.6401
0175 00002bc 	lw.s	%f1, 0(%r1)
0176 00002c0 	c.eq.s	0, %f0, %f1
0177 00002c4 	bf.s	0, bt.s_else.8917
0178 00002c8 	addi	%r1, %r0, 1
0179 00002cc 	jr	%r31
0180 00002d0 bt.s_else.8917:
0180 00002d0 	addi	%r1, %r0, 0
0181 00002d4 	jr	%r31
0182 00002d8 fhalf.2636:
0182 00002d8 	la	%r1, l.6405
0184 00002e0 	lw.s	%f1, 0(%r1)
0185 00002e4 	mul.s	%f0, %f0, %f1
0186 00002e8 	jr	%r31
0187 00002ec fsqr.2638:
0187 00002ec 	mul.s	%f0, %f0, %f0
0188 00002f0 	jr	%r31
0189 00002f4 taylor_cos.2640:
0189 00002f4 	mul.s	%f0, %f0, %f0
0190 00002f8 	la	%r1, l.6407
0192 0000300 	lw.s	%f1, 0(%r1)
0193 0000304 	la	%r1, l.6405
0195 000030c 	lw.s	%f2, 0(%r1)
0196 0000310 	la	%r1, l.6410
0198 0000318 	lw.s	%f3, 0(%r1)
0199 000031c 	la	%r1, l.6412
0201 0000324 	lw.s	%f4, 0(%r1)
0202 0000328 	mul.s	%f4, %f0, %f4
0203 000032c 	sub.s	%f3, %f3, %f4
0204 0000330 	mul.s	%f3, %f0, %f3
0205 0000334 	sub.s	%f2, %f2, %f3
0206 0000338 	mul.s	%f0, %f0, %f2
0207 000033c 	sub.s	%f0, %f1, %f0
0208 0000340 	jr	%r31
0209 0000344 taylor_sin.2642:
0209 0000344 	mul.s	%f1, %f0, %f0
0210 0000348 	la	%r1, l.6407
0212 0000350 	lw.s	%f2, 0(%r1)
0213 0000354 	la	%r1, l.6415
0215 000035c 	lw.s	%f3, 0(%r1)
0216 0000360 	la	%r1, l.6417
0218 0000368 	lw.s	%f4, 0(%r1)
0219 000036c 	la	%r1, l.6419
0221 0000374 	lw.s	%f5, 0(%r1)
0222 0000378 	mul.s	%f5, %f1, %f5
0223 000037c 	sub.s	%f4, %f4, %f5
0224 0000380 	mul.s	%f4, %f1, %f4
0225 0000384 	sub.s	%f3, %f3, %f4
0226 0000388 	mul.s	%f1, %f1, %f3
0227 000038c 	sub.s	%f1, %f2, %f1
0228 0000390 	mul.s	%f0, %f0, %f1
0229 0000394 	jr	%r31
0230 0000398 cos.2644:
0230 0000398 	la	%r1, l.6401
0232 00003a0 	lw.s	%f1, 0(%r1)
0233 00003a4 	c.le.s	0, %f1, %f0
0234 00003a8 	bf.s	0, bt.s_else.8918
0235 00003ac 	la	%r1, l.6423
0237 00003b4 	lw.s	%f1, 0(%r1)
0238 00003b8 	c.le.s	0, %f0, %f1
0239 00003bc 	bf.s	0, bt.s_else.8919
0240 00003c0 	la	%r1, l.6426
0242 00003c8 	lw.s	%f1, 0(%r1)
0243 00003cc 	c.le.s	0, %f1, %f0
0244 00003d0 	bf.s	0, bt.s_else.8920
0245 00003d4 	la	%r1, l.6426
0247 00003dc 	lw.s	%f1, 0(%r1)
0248 00003e0 	sub.s	%f0, %f0, %f1
0249 00003e4 	la	%r1, l.6428
0251 00003ec 	lw.s	%f1, 0(%r1)
0252 00003f0 	c.le.s	0, %f1, %f0
0253 00003f4 	bf.s	0, bt.s_else.8921
0254 00003f8 	la	%r1, l.6433
0256 0000400 	lw.s	%f1, 0(%r1)
0257 0000404 	c.le.s	0, %f1, %f0
0258 0000408 	bf.s	0, bt.s_else.8922
0259 000040c 	la	%r1, l.6426
0261 0000414 	lw.s	%f1, 0(%r1)
0262 0000418 	sub.s	%f0, %f1, %f0
0263 000041c 	j	taylor_cos.2640
0264 0000420 bt.s_else.8922:
0264 0000420 	la	%r1, l.6428
0266 0000428 	lw.s	%f1, 0(%r1)
0267 000042c 	sub.s	%f0, %f0, %f1
0268 0000430 	j	taylor_sin.2642
0269 0000434 bt.s_else.8921:
0269 0000434 	la	%r1, l.6430
0271 000043c 	lw.s	%f1, 0(%r1)
0272 0000440 	c.le.s	0, %f1, %f0
0273 0000444 	bf.s	0, bt.s_else.8923
0274 0000448 	la	%r1, l.6401
0276 0000450 	lw.s	%f1, 0(%r1)
0277 0000454 	la	%r1, l.6428
0279 000045c 	lw.s	%f2, 0(%r1)
0280 0000460 	sub.s	%f0, %f2, %f0
0281 0000464 	sw.s	%f1, 0(%r30)
0282 0000468 	sw	%r31, 1(%r30)
0283 000046c 	addi	%r30, %r30, 2
0284 0000470 	jal	taylor_cos.2640
0285 0000474 	addi	%r30, %r30, -2
0286 0000478 	lw	%r31, 1(%r30)
0287 000047c 	lw.s	%f1, 0(%r30)
0288 0000480 	sub.s	%f0, %f1, %f0
0289 0000484 	jr	%r31
0290 0000488 bt.s_else.8923:
0290 0000488 	la	%r1, l.6401
0292 0000490 	lw.s	%f1, 0(%r1)
0293 0000494 	sw.s	%f1, 1(%r30)
0294 0000498 	sw	%r31, 2(%r30)
0295 000049c 	addi	%r30, %r30, 3
0296 00004a0 	jal	taylor_sin.2642
0297 00004a4 	addi	%r30, %r30, -3
0298 00004a8 	lw	%r31, 2(%r30)
0299 00004ac 	lw.s	%f1, 1(%r30)
0300 00004b0 	sub.s	%f0, %f1, %f0
0301 00004b4 	jr	%r31
0302 00004b8 bt.s_else.8920:
0302 00004b8 	la	%r1, l.6428
0304 00004c0 	lw.s	%f1, 0(%r1)
0305 00004c4 	c.le.s	0, %f1, %f0
0306 00004c8 	bf.s	0, bt.s_else.8924
0307 00004cc 	la	%r1, l.6433
0309 00004d4 	lw.s	%f1, 0(%r1)
0310 00004d8 	c.le.s	0, %f1, %f0
0311 00004dc 	bf.s	0, bt.s_else.8925
0312 00004e0 	la	%r1, l.6401
0314 00004e8 	lw.s	%f1, 0(%r1)
0315 00004ec 	la	%r1, l.6426
0317 00004f4 	lw.s	%f2, 0(%r1)
0318 00004f8 	sub.s	%f0, %f2, %f0
0319 00004fc 	sw.s	%f1, 2(%r30)
0320 0000500 	sw	%r31, 3(%r30)
0321 0000504 	addi	%r30, %r30, 4
0322 0000508 	jal	taylor_cos.2640
0323 000050c 	addi	%r30, %r30, -4
0324 0000510 	lw	%r31, 3(%r30)
0325 0000514 	lw.s	%f1, 2(%r30)
0326 0000518 	sub.s	%f0, %f1, %f0
0327 000051c 	jr	%r31
0328 0000520 bt.s_else.8925:
0328 0000520 	la	%r1, l.6401
0330 0000528 	lw.s	%f1, 0(%r1)
0331 000052c 	la	%r1, l.6428
0333 0000534 	lw.s	%f2, 0(%r1)
0334 0000538 	sub.s	%f0, %f0, %f2
0335 000053c 	sw.s	%f1, 3(%r30)
0336 0000540 	sw	%r31, 4(%r30)
0337 0000544 	addi	%r30, %r30, 5
0338 0000548 	jal	taylor_sin.2642
0339 000054c 	addi	%r30, %r30, -5
0340 0000550 	lw	%r31, 4(%r30)
0341 0000554 	lw.s	%f1, 3(%r30)
0342 0000558 	sub.s	%f0, %f1, %f0
0343 000055c 	jr	%r31
0344 0000560 bt.s_else.8924:
0344 0000560 	la	%r1, l.6430
0346 0000568 	lw.s	%f1, 0(%r1)
0347 000056c 	c.le.s	0, %f1, %f0
0348 0000570 	bf.s	0, bt.s_else.8926
0349 0000574 	la	%r1, l.6428
0351 000057c 	lw.s	%f1, 0(%r1)
0352 0000580 	sub.s	%f0, %f1, %f0
0353 0000584 	j	taylor_sin.2642
0354 0000588 bt.s_else.8926:
0354 0000588 	j	taylor_cos.2640
0355 000058c bt.s_else.8919:
0355 000058c 	la	%r1, l.6423
0357 0000594 	lw.s	%f1, 0(%r1)
0358 0000598 	sub.s	%f0, %f0, %f1
0359 000059c 	j	cos.2644
0360 00005a0 bt.s_else.8918:
0360 00005a0 	la	%r1, l.6401
0362 00005a8 	lw.s	%f1, 0(%r1)
0363 00005ac 	sub.s	%f0, %f1, %f0
0364 00005b0 	j	cos.2644
0365 00005b4 sin.2646:
0365 00005b4 	la	%r1, l.6401
0367 00005bc 	lw.s	%f1, 0(%r1)
0368 00005c0 	c.le.s	0, %f1, %f0
0369 00005c4 	bf.s	0, bt.s_else.8927
0370 00005c8 	la	%r1, l.6423
0372 00005d0 	lw.s	%f1, 0(%r1)
0373 00005d4 	c.le.s	0, %f0, %f1
0374 00005d8 	bf.s	0, bt.s_else.8928
0375 00005dc 	la	%r1, l.6426
0377 00005e4 	lw.s	%f1, 0(%r1)
0378 00005e8 	c.le.s	0, %f1, %f0
0379 00005ec 	bf.s	0, bt.s_else.8929
0380 00005f0 	la	%r1, l.6426
0382 00005f8 	lw.s	%f1, 0(%r1)
0383 00005fc 	sub.s	%f0, %f0, %f1
0384 0000600 	la	%r1, l.6428
0386 0000608 	lw.s	%f1, 0(%r1)
0387 000060c 	c.le.s	0, %f1, %f0
0388 0000610 	bf.s	0, bt.s_else.8930
0389 0000614 	la	%r1, l.6433
0391 000061c 	lw.s	%f1, 0(%r1)
0392 0000620 	c.le.s	0, %f1, %f0
0393 0000624 	bf.s	0, bt.s_else.8931
0394 0000628 	la	%r1, l.6401
0396 0000630 	lw.s	%f1, 0(%r1)
0397 0000634 	la	%r1, l.6426
0399 000063c 	lw.s	%f2, 0(%r1)
0400 0000640 	sub.s	%f0, %f2, %f0
0401 0000644 	sw.s	%f1, 0(%r30)
0402 0000648 	sw	%r31, 1(%r30)
0403 000064c 	addi	%r30, %r30, 2
0404 0000650 	jal	taylor_sin.2642
0405 0000654 	addi	%r30, %r30, -2
0406 0000658 	lw	%r31, 1(%r30)
0407 000065c 	lw.s	%f1, 0(%r30)
0408 0000660 	sub.s	%f0, %f1, %f0
0409 0000664 	jr	%r31
0410 0000668 bt.s_else.8931:
0410 0000668 	la	%r1, l.6401
0412 0000670 	lw.s	%f1, 0(%r1)
0413 0000674 	la	%r1, l.6428
0415 000067c 	lw.s	%f2, 0(%r1)
0416 0000680 	sub.s	%f0, %f0, %f2
0417 0000684 	sw.s	%f1, 1(%r30)
0418 0000688 	sw	%r31, 2(%r30)
0419 000068c 	addi	%r30, %r30, 3
0420 0000690 	jal	taylor_cos.2640
0421 0000694 	addi	%r30, %r30, -3
0422 0000698 	lw	%r31, 2(%r30)
0423 000069c 	lw.s	%f1, 1(%r30)
0424 00006a0 	sub.s	%f0, %f1, %f0
0425 00006a4 	jr	%r31
0426 00006a8 bt.s_else.8930:
0426 00006a8 	la	%r1, l.6430
0428 00006b0 	lw.s	%f1, 0(%r1)
0429 00006b4 	c.le.s	0, %f1, %f0
0430 00006b8 	bf.s	0, bt.s_else.8932
0431 00006bc 	la	%r1, l.6401
0433 00006c4 	lw.s	%f1, 0(%r1)
0434 00006c8 	la	%r1, l.6428
0436 00006d0 	lw.s	%f2, 0(%r1)
0437 00006d4 	sub.s	%f0, %f2, %f0
0438 00006d8 	sw.s	%f1, 2(%r30)
0439 00006dc 	sw	%r31, 3(%r30)
0440 00006e0 	addi	%r30, %r30, 4
0441 00006e4 	jal	taylor_cos.2640
0442 00006e8 	addi	%r30, %r30, -4
0443 00006ec 	lw	%r31, 3(%r30)
0444 00006f0 	lw.s	%f1, 2(%r30)
0445 00006f4 	sub.s	%f0, %f1, %f0
0446 00006f8 	jr	%r31
0447 00006fc bt.s_else.8932:
0447 00006fc 	la	%r1, l.6401
0449 0000704 	lw.s	%f1, 0(%r1)
0450 0000708 	sw.s	%f1, 3(%r30)
0451 000070c 	sw	%r31, 4(%r30)
0452 0000710 	addi	%r30, %r30, 5
0453 0000714 	jal	taylor_sin.2642
0454 0000718 	addi	%r30, %r30, -5
0455 000071c 	lw	%r31, 4(%r30)
0456 0000720 	lw.s	%f1, 3(%r30)
0457 0000724 	sub.s	%f0, %f1, %f0
0458 0000728 	jr	%r31
0459 000072c bt.s_else.8929:
0459 000072c 	la	%r1, l.6428
0461 0000734 	lw.s	%f1, 0(%r1)
0462 0000738 	c.le.s	0, %f1, %f0
0463 000073c 	bf.s	0, bt.s_else.8933
0464 0000740 	la	%r1, l.6433
0466 0000748 	lw.s	%f1, 0(%r1)
0467 000074c 	c.le.s	0, %f1, %f0
0468 0000750 	bf.s	0, bt.s_else.8934
0469 0000754 	la	%r1, l.6426
0471 000075c 	lw.s	%f1, 0(%r1)
0472 0000760 	sub.s	%f0, %f1, %f0
0473 0000764 	j	taylor_sin.2642
0474 0000768 bt.s_else.8934:
0474 0000768 	la	%r1, l.6428
0476 0000770 	lw.s	%f1, 0(%r1)
0477 0000774 	sub.s	%f0, %f0, %f1
0478 0000778 	j	taylor_cos.2640
0479 000077c bt.s_else.8933:
0479 000077c 	la	%r1, l.6430
0481 0000784 	lw.s	%f1, 0(%r1)
0482 0000788 	c.le.s	0, %f1, %f0
0483 000078c 	bf.s	0, bt.s_else.8935
0484 0000790 	la	%r1, l.6428
0486 0000798 	lw.s	%f1, 0(%r1)
0487 000079c 	sub.s	%f0, %f1, %f0
0488 00007a0 	j	taylor_cos.2640
0489 00007a4 bt.s_else.8935:
0489 00007a4 	j	taylor_sin.2642
0490 00007a8 bt.s_else.8928:
0490 00007a8 	la	%r1, l.6423
0492 00007b0 	lw.s	%f1, 0(%r1)
0493 00007b4 	sub.s	%f0, %f0, %f1
0494 00007b8 	j	sin.2646
0495 00007bc bt.s_else.8927:
0495 00007bc 	la	%r1, l.6401
0497 00007c4 	lw.s	%f1, 0(%r1)
0498 00007c8 	la	%r1, l.6401
0500 00007d0 	lw.s	%f2, 0(%r1)
0501 00007d4 	sub.s	%f0, %f2, %f0
0502 00007d8 	sw.s	%f1, 4(%r30)
0503 00007dc 	sw	%r31, 5(%r30)
0504 00007e0 	addi	%r30, %r30, 6
0505 00007e4 	jal	sin.2646
0506 00007e8 	addi	%r30, %r30, -6
0507 00007ec 	lw	%r31, 5(%r30)
0508 00007f0 	lw.s	%f1, 4(%r30)
0509 00007f4 	sub.s	%f0, %f1, %f0
0510 00007f8 	jr	%r31
0511 00007fc taylor_atan.2648:
0511 00007fc 	mul.s	%f1, %f0, %f0
0512 0000800 	la	%r1, l.6407
0514 0000808 	lw.s	%f2, 0(%r1)
0515 000080c 	la	%r1, l.6472
0517 0000814 	lw.s	%f3, 0(%r1)
0518 0000818 	la	%r1, l.6474
0520 0000820 	lw.s	%f4, 0(%r1)
0521 0000824 	la	%r1, l.6476
0523 000082c 	lw.s	%f5, 0(%r1)
0524 0000830 	la	%r1, l.6478
0526 0000838 	lw.s	%f6, 0(%r1)
0527 000083c 	la	%r1, l.6480
0529 0000844 	lw.s	%f7, 0(%r1)
0530 0000848 	la	%r1, l.6482
0532 0000850 	lw.s	%f8, 0(%r1)
0533 0000854 	mul.s	%f8, %f8, %f1
0534 0000858 	sub.s	%f7, %f7, %f8
0535 000085c 	mul.s	%f7, %f1, %f7
0536 0000860 	sub.s	%f6, %f6, %f7
0537 0000864 	mul.s	%f6, %f1, %f6
0538 0000868 	sub.s	%f5, %f5, %f6
0539 000086c 	mul.s	%f5, %f1, %f5
0540 0000870 	sub.s	%f4, %f4, %f5
0541 0000874 	mul.s	%f4, %f1, %f4
0542 0000878 	sub.s	%f3, %f3, %f4
0543 000087c 	mul.s	%f1, %f1, %f3
0544 0000880 	sub.s	%f1, %f2, %f1
0545 0000884 	mul.s	%f0, %f0, %f1
0546 0000888 	jr	%r31
0547 000088c atan.2650:
0547 000088c 	la	%r1, l.6401
0549 0000894 	lw.s	%f1, 0(%r1)
0550 0000898 	c.le.s	0, %f0, %f1
0551 000089c 	bf.s	0, bt.s_else.8936
0552 00008a0 	la	%r1, l.6401
0554 00008a8 	lw.s	%f1, 0(%r1)
0555 00008ac 	sub.s	%f0, %f1, %f0
0556 00008b0 	la	%r1, l.6485
0558 00008b8 	lw.s	%f1, 0(%r1)
0559 00008bc 	c.le.s	0, %f1, %f0
0560 00008c0 	bf.s	0, bt.s_else.8937
0561 00008c4 	la	%r1, l.6401
0563 00008cc 	lw.s	%f1, 0(%r1)
0564 00008d0 	la	%r1, l.6493
0566 00008d8 	lw.s	%f2, 0(%r1)
0567 00008dc 	la	%r1, l.6407
0569 00008e4 	lw.s	%f3, 0(%r1)
0570 00008e8 	div.s	%f0, %f3, %f0
0571 00008ec 	sw.s	%f1, 0(%r30)
0572 00008f0 	sw.s	%f2, 1(%r30)
0573 00008f4 	sw	%r31, 2(%r30)
0574 00008f8 	addi	%r30, %r30, 3
0575 00008fc 	jal	taylor_atan.2648
0576 0000900 	addi	%r30, %r30, -3
0577 0000904 	lw	%r31, 2(%r30)
0578 0000908 	lw.s	%f1, 1(%r30)
0579 000090c 	sub.s	%f0, %f1, %f0
0580 0000910 	lw.s	%f1, 0(%r30)
0581 0000914 	sub.s	%f0, %f1, %f0
0582 0000918 	jr	%r31
0583 000091c bt.s_else.8937:
0583 000091c 	la	%r1, l.6401
0585 0000924 	lw.s	%f1, 0(%r1)
0586 0000928 	la	%r1, l.6489
0588 0000930 	lw.s	%f2, 0(%r1)
0589 0000934 	la	%r1, l.6407
0591 000093c 	lw.s	%f3, 0(%r1)
0592 0000940 	sub.s	%f3, %f0, %f3
0593 0000944 	la	%r1, l.6407
0595 000094c 	lw.s	%f4, 0(%r1)
0596 0000950 	add.s	%f0, %f0, %f4
0597 0000954 	div.s	%f0, %f3, %f0
0598 0000958 	sw.s	%f1, 2(%r30)
0599 000095c 	sw.s	%f2, 3(%r30)
0600 0000960 	sw	%r31, 4(%r30)
0601 0000964 	addi	%r30, %r30, 5
0602 0000968 	jal	taylor_atan.2648
0603 000096c 	addi	%r30, %r30, -5
0604 0000970 	lw	%r31, 4(%r30)
0605 0000974 	lw.s	%f1, 3(%r30)
0606 0000978 	add.s	%f0, %f1, %f0
0607 000097c 	lw.s	%f1, 2(%r30)
0608 0000980 	sub.s	%f0, %f1, %f0
0609 0000984 	jr	%r31
0610 0000988 bt.s_else.8936:
0610 0000988 	la	%r1, l.6485
0612 0000990 	lw.s	%f1, 0(%r1)
0613 0000994 	c.le.s	0, %f1, %f0
0614 0000998 	bf.s	0, bt.s_else.8938
0615 000099c 	la	%r1, l.6487
0617 00009a4 	lw.s	%f1, 0(%r1)
0618 00009a8 	c.le.s	0, %f1, %f0
0619 00009ac 	bf.s	0, bt.s_else.8939
0620 00009b0 	la	%r1, l.6493
0622 00009b8 	lw.s	%f1, 0(%r1)
0623 00009bc 	la	%r1, l.6407
0625 00009c4 	lw.s	%f2, 0(%r1)
0626 00009c8 	div.s	%f0, %f2, %f0
0627 00009cc 	sw.s	%f1, 4(%r30)
0628 00009d0 	sw	%r31, 5(%r30)
0629 00009d4 	addi	%r30, %r30, 6
0630 00009d8 	jal	taylor_atan.2648
0631 00009dc 	addi	%r30, %r30, -6
0632 00009e0 	lw	%r31, 5(%r30)
0633 00009e4 	lw.s	%f1, 4(%r30)
0634 00009e8 	sub.s	%f0, %f1, %f0
0635 00009ec 	jr	%r31
0636 00009f0 bt.s_else.8939:
0636 00009f0 	la	%r1, l.6489
0638 00009f8 	lw.s	%f1, 0(%r1)
0639 00009fc 	la	%r1, l.6407
0641 0000a04 	lw.s	%f2, 0(%r1)
0642 0000a08 	sub.s	%f2, %f0, %f2
0643 0000a0c 	la	%r1, l.6407
0645 0000a14 	lw.s	%f3, 0(%r1)
0646 0000a18 	add.s	%f0, %f0, %f3
0647 0000a1c 	div.s	%f0, %f2, %f0
0648 0000a20 	sw.s	%f1, 5(%r30)
0649 0000a24 	sw	%r31, 6(%r30)
0650 0000a28 	addi	%r30, %r30, 7
0651 0000a2c 	jal	taylor_atan.2648
0652 0000a30 	addi	%r30, %r30, -7
0653 0000a34 	lw	%r31, 6(%r30)
0654 0000a38 	lw.s	%f1, 5(%r30)
0655 0000a3c 	add.s	%f0, %f1, %f0
0656 0000a40 	jr	%r31
0657 0000a44 bt.s_else.8938:
0657 0000a44 	j	taylor_atan.2648
0658 0000a48 floor.2652:
0658 0000a48 	la	%r1, l.6405
0660 0000a50 	lw.s	%f1, 0(%r1)
0661 0000a54 	sub.s	%f0, %f0, %f1
0662 0000a58 	ftoi	%r1, %f0
0663 0000a5c 	itof	%f0, %r1
0664 0000a60 	jr	%r31
0665 0000a64 xor.2654:
0665 0000a64 	addi	%r26, %r0, 0
0666 0000a68 	bne	%r1, %r26, beq_else.8940
0667 0000a6c 	add	%r1, %r0, %r2
0668 0000a70 	jr	%r31
0669 0000a74 beq_else.8940:
0669 0000a74 	addi	%r26, %r0, 0
0670 0000a78 	bne	%r2, %r26, beq_else.8941
0671 0000a7c 	addi	%r1, %r0, 1
0672 0000a80 	jr	%r31
0673 0000a84 beq_else.8941:
0673 0000a84 	addi	%r1, %r0, 0
0674 0000a88 	jr	%r31
0675 0000a8c sgn.2657:
0675 0000a8c 	sw.s	%f0, 0(%r30)
0676 0000a90 	sw	%r31, 1(%r30)
0677 0000a94 	addi	%r30, %r30, 2
0678 0000a98 	jal	fiszero.2634
0679 0000a9c 	addi	%r30, %r30, -2
0680 0000aa0 	lw	%r31, 1(%r30)
0681 0000aa4 	addi	%r26, %r0, 0
0682 0000aa8 	bne	%r1, %r26, beq_else.8942
0683 0000aac 	lw.s	%f0, 0(%r30)
0684 0000ab0 	sw	%r31, 1(%r30)
0685 0000ab4 	addi	%r30, %r30, 2
0686 0000ab8 	jal	fispos.2630
0687 0000abc 	addi	%r30, %r30, -2
0688 0000ac0 	lw	%r31, 1(%r30)
0689 0000ac4 	addi	%r26, %r0, 0
0690 0000ac8 	bne	%r1, %r26, beq_else.8943
0691 0000acc 	la	%r1, l.6508
0693 0000ad4 	lw.s	%f0, 0(%r1)
0694 0000ad8 	jr	%r31
0695 0000adc beq_else.8943:
0695 0000adc 	la	%r1, l.6407
0697 0000ae4 	lw.s	%f0, 0(%r1)
0698 0000ae8 	jr	%r31
0699 0000aec beq_else.8942:
0699 0000aec 	la	%r1, l.6401
0701 0000af4 	lw.s	%f0, 0(%r1)
0702 0000af8 	jr	%r31
0703 0000afc fneg_cond.2659:
0703 0000afc 	addi	%r26, %r0, 0
0704 0000b00 	bne	%r1, %r26, beq_else.8944
0705 0000b04 	j	min_caml_fneg
0706 0000b08 beq_else.8944:
0706 0000b08 	mov.s	%f0, %f0
0707 0000b0c 	jr	%r31
0708 0000b10 add_mod5.2662:
0708 0000b10 	add	%r1, %r1, %r2
0709 0000b14 	addi	%r26, %r0, 5
0710 0000b18 	slt	%r28, %r26, %r1
0711 0000b1c 	beq	%r28, %r0, bne_else.8945
0712 0000b20 	addi	%r1, %r1, -5
0713 0000b24 	jr	%r31
0714 0000b28 bne_else.8945:
0714 0000b28 	add	%r1, %r0, %r1
0715 0000b2c 	jr	%r31
0716 0000b30 vecset.2665:
0716 0000b30 	addi	%r2, %r1, 0
0717 0000b34 	sw.s	%f0, 0(%r2)
0718 0000b38 	addi	%r2, %r1, 1
0719 0000b3c 	sw.s	%f1, 0(%r2)
0720 0000b40 	addi	%r1, %r1, 2
0721 0000b44 	sw.s	%f2, 0(%r1)
0722 0000b48 	jr	%r31
0723 0000b4c vecfill.2670:
0723 0000b4c 	addi	%r2, %r1, 0
0724 0000b50 	sw.s	%f0, 0(%r2)
0725 0000b54 	addi	%r2, %r1, 1
0726 0000b58 	sw.s	%f0, 0(%r2)
0727 0000b5c 	addi	%r1, %r1, 2
0728 0000b60 	sw.s	%f0, 0(%r1)
0729 0000b64 	jr	%r31
0730 0000b68 vecbzero.2673:
0730 0000b68 	la	%r2, l.6401
0732 0000b70 	lw.s	%f0, 0(%r2)
0733 0000b74 	j	vecfill.2670
0734 0000b78 veccpy.2675:
0734 0000b78 	addi	%r3, %r2, 0
0735 0000b7c 	lw.s	%f0, 0(%r3)
0736 0000b80 	addi	%r3, %r1, 0
0737 0000b84 	sw.s	%f0, 0(%r3)
0738 0000b88 	addi	%r3, %r2, 1
0739 0000b8c 	lw.s	%f0, 0(%r3)
0740 0000b90 	addi	%r3, %r1, 1
0741 0000b94 	sw.s	%f0, 0(%r3)
0742 0000b98 	addi	%r2, %r2, 2
0743 0000b9c 	lw.s	%f0, 0(%r2)
0744 0000ba0 	addi	%r1, %r1, 2
0745 0000ba4 	sw.s	%f0, 0(%r1)
0746 0000ba8 	jr	%r31
0747 0000bac vecunit_sgn.2683:
0747 0000bac 	addi	%r3, %r1, 0
0748 0000bb0 	lw.s	%f0, 0(%r3)
0749 0000bb4 	sw	%r2, 0(%r30)
0750 0000bb8 	sw	%r1, 1(%r30)
0751 0000bbc 	sw	%r31, 2(%r30)
0752 0000bc0 	addi	%r30, %r30, 3
0753 0000bc4 	jal	fsqr.2638
0754 0000bc8 	addi	%r30, %r30, -3
0755 0000bcc 	lw	%r31, 2(%r30)
0756 0000bd0 	lw	%r1, 1(%r30)
0757 0000bd4 	addi	%r2, %r1, 1
0758 0000bd8 	lw.s	%f1, 0(%r2)
0759 0000bdc 	sw.s	%f0, 2(%r30)
0760 0000be0 	mov.s	%f0, %f1
0761 0000be4 	sw	%r31, 3(%r30)
0762 0000be8 	addi	%r30, %r30, 4
0763 0000bec 	jal	fsqr.2638
0764 0000bf0 	addi	%r30, %r30, -4
0765 0000bf4 	lw	%r31, 3(%r30)
0766 0000bf8 	lw.s	%f1, 2(%r30)
0767 0000bfc 	add.s	%f0, %f1, %f0
0768 0000c00 	lw	%r1, 1(%r30)
0769 0000c04 	addi	%r2, %r1, 2
0770 0000c08 	lw.s	%f1, 0(%r2)
0771 0000c0c 	sw.s	%f0, 3(%r30)
0772 0000c10 	mov.s	%f0, %f1
0773 0000c14 	sw	%r31, 4(%r30)
0774 0000c18 	addi	%r30, %r30, 5
0775 0000c1c 	jal	fsqr.2638
0776 0000c20 	addi	%r30, %r30, -5
0777 0000c24 	lw	%r31, 4(%r30)
0778 0000c28 	lw.s	%f1, 3(%r30)
0779 0000c2c 	add.s	%f0, %f1, %f0
0780 0000c30 	sqrt.s	%f0, %f0
0781 0000c34 	sw.s	%f0, 4(%r30)
0782 0000c38 	sw	%r31, 5(%r30)
0783 0000c3c 	addi	%r30, %r30, 6
0784 0000c40 	jal	fiszero.2634
0785 0000c44 	addi	%r30, %r30, -6
0786 0000c48 	lw	%r31, 5(%r30)
0787 0000c4c 	addi	%r26, %r0, 0
0788 0000c50 	bne	%r1, %r26, beq_else.8949
0789 0000c54 	lw	%r1, 0(%r30)
0790 0000c58 	addi	%r26, %r0, 0
0791 0000c5c 	bne	%r1, %r26, beq_else.8951
0792 0000c60 	la	%r1, l.6407
0794 0000c68 	lw.s	%f0, 0(%r1)
0795 0000c6c 	lw.s	%f1, 4(%r30)
0796 0000c70 	div.s	%f0, %f0, %f1
0797 0000c74 	j	beq_cont.8952
0798 0000c78 beq_else.8951:
0798 0000c78 	la	%r1, l.6508
0800 0000c80 	lw.s	%f0, 0(%r1)
0801 0000c84 	lw.s	%f1, 4(%r30)
0802 0000c88 	div.s	%f0, %f0, %f1
0803 0000c8c beq_cont.8952:
0803 0000c8c 	j	beq_cont.8950
0804 0000c90 beq_else.8949:
0804 0000c90 	la	%r1, l.6407
0806 0000c98 	lw.s	%f0, 0(%r1)
0807 0000c9c beq_cont.8950:
0807 0000c9c 	lw	%r1, 1(%r30)
0808 0000ca0 	addi	%r2, %r1, 0
0809 0000ca4 	lw.s	%f1, 0(%r2)
0810 0000ca8 	mul.s	%f1, %f1, %f0
0811 0000cac 	addi	%r2, %r1, 0
0812 0000cb0 	sw.s	%f1, 0(%r2)
0813 0000cb4 	addi	%r2, %r1, 1
0814 0000cb8 	lw.s	%f1, 0(%r2)
0815 0000cbc 	mul.s	%f1, %f1, %f0
0816 0000cc0 	addi	%r2, %r1, 1
0817 0000cc4 	sw.s	%f1, 0(%r2)
0818 0000cc8 	addi	%r2, %r1, 2
0819 0000ccc 	lw.s	%f1, 0(%r2)
0820 0000cd0 	mul.s	%f0, %f1, %f0
0821 0000cd4 	addi	%r1, %r1, 2
0822 0000cd8 	sw.s	%f0, 0(%r1)
0823 0000cdc 	jr	%r31
0824 0000ce0 veciprod.2686:
0824 0000ce0 	addi	%r3, %r1, 0
0825 0000ce4 	lw.s	%f0, 0(%r3)
0826 0000ce8 	addi	%r3, %r2, 0
0827 0000cec 	lw.s	%f1, 0(%r3)
0828 0000cf0 	mul.s	%f0, %f0, %f1
0829 0000cf4 	addi	%r3, %r1, 1
0830 0000cf8 	lw.s	%f1, 0(%r3)
0831 0000cfc 	addi	%r3, %r2, 1
0832 0000d00 	lw.s	%f2, 0(%r3)
0833 0000d04 	mul.s	%f1, %f1, %f2
0834 0000d08 	add.s	%f0, %f0, %f1
0835 0000d0c 	addi	%r1, %r1, 2
0836 0000d10 	lw.s	%f1, 0(%r1)
0837 0000d14 	addi	%r1, %r2, 2
0838 0000d18 	lw.s	%f2, 0(%r1)
0839 0000d1c 	mul.s	%f1, %f1, %f2
0840 0000d20 	add.s	%f0, %f0, %f1
0841 0000d24 	jr	%r31
0842 0000d28 veciprod2.2689:
0842 0000d28 	addi	%r2, %r1, 0
0843 0000d2c 	lw.s	%f3, 0(%r2)
0844 0000d30 	mul.s	%f0, %f3, %f0
0845 0000d34 	addi	%r2, %r1, 1
0846 0000d38 	lw.s	%f3, 0(%r2)
0847 0000d3c 	mul.s	%f1, %f3, %f1
0848 0000d40 	add.s	%f0, %f0, %f1
0849 0000d44 	addi	%r1, %r1, 2
0850 0000d48 	lw.s	%f1, 0(%r1)
0851 0000d4c 	mul.s	%f1, %f1, %f2
0852 0000d50 	add.s	%f0, %f0, %f1
0853 0000d54 	jr	%r31
0854 0000d58 vecaccum.2694:
0854 0000d58 	addi	%r3, %r1, 0
0855 0000d5c 	lw.s	%f1, 0(%r3)
0856 0000d60 	addi	%r3, %r2, 0
0857 0000d64 	lw.s	%f2, 0(%r3)
0858 0000d68 	mul.s	%f2, %f0, %f2
0859 0000d6c 	add.s	%f1, %f1, %f2
0860 0000d70 	addi	%r3, %r1, 0
0861 0000d74 	sw.s	%f1, 0(%r3)
0862 0000d78 	addi	%r3, %r1, 1
0863 0000d7c 	lw.s	%f1, 0(%r3)
0864 0000d80 	addi	%r3, %r2, 1
0865 0000d84 	lw.s	%f2, 0(%r3)
0866 0000d88 	mul.s	%f2, %f0, %f2
0867 0000d8c 	add.s	%f1, %f1, %f2
0868 0000d90 	addi	%r3, %r1, 1
0869 0000d94 	sw.s	%f1, 0(%r3)
0870 0000d98 	addi	%r3, %r1, 2
0871 0000d9c 	lw.s	%f1, 0(%r3)
0872 0000da0 	addi	%r2, %r2, 2
0873 0000da4 	lw.s	%f2, 0(%r2)
0874 0000da8 	mul.s	%f0, %f0, %f2
0875 0000dac 	add.s	%f0, %f1, %f0
0876 0000db0 	addi	%r1, %r1, 2
0877 0000db4 	sw.s	%f0, 0(%r1)
0878 0000db8 	jr	%r31
0879 0000dbc vecadd.2698:
0879 0000dbc 	addi	%r3, %r1, 0
0880 0000dc0 	lw.s	%f0, 0(%r3)
0881 0000dc4 	addi	%r3, %r2, 0
0882 0000dc8 	lw.s	%f1, 0(%r3)
0883 0000dcc 	add.s	%f0, %f0, %f1
0884 0000dd0 	addi	%r3, %r1, 0
0885 0000dd4 	sw.s	%f0, 0(%r3)
0886 0000dd8 	addi	%r3, %r1, 1
0887 0000ddc 	lw.s	%f0, 0(%r3)
0888 0000de0 	addi	%r3, %r2, 1
0889 0000de4 	lw.s	%f1, 0(%r3)
0890 0000de8 	add.s	%f0, %f0, %f1
0891 0000dec 	addi	%r3, %r1, 1
0892 0000df0 	sw.s	%f0, 0(%r3)
0893 0000df4 	addi	%r3, %r1, 2
0894 0000df8 	lw.s	%f0, 0(%r3)
0895 0000dfc 	addi	%r2, %r2, 2
0896 0000e00 	lw.s	%f1, 0(%r2)
0897 0000e04 	add.s	%f0, %f0, %f1
0898 0000e08 	addi	%r1, %r1, 2
0899 0000e0c 	sw.s	%f0, 0(%r1)
0900 0000e10 	jr	%r31
0901 0000e14 vecscale.2704:
0901 0000e14 	addi	%r2, %r1, 0
0902 0000e18 	lw.s	%f1, 0(%r2)
0903 0000e1c 	mul.s	%f1, %f1, %f0
0904 0000e20 	addi	%r2, %r1, 0
0905 0000e24 	sw.s	%f1, 0(%r2)
0906 0000e28 	addi	%r2, %r1, 1
0907 0000e2c 	lw.s	%f1, 0(%r2)
0908 0000e30 	mul.s	%f1, %f1, %f0
0909 0000e34 	addi	%r2, %r1, 1
0910 0000e38 	sw.s	%f1, 0(%r2)
0911 0000e3c 	addi	%r2, %r1, 2
0912 0000e40 	lw.s	%f1, 0(%r2)
0913 0000e44 	mul.s	%f0, %f1, %f0
0914 0000e48 	addi	%r1, %r1, 2
0915 0000e4c 	sw.s	%f0, 0(%r1)
0916 0000e50 	jr	%r31
0917 0000e54 vecaccumv.2707:
0917 0000e54 	addi	%r4, %r1, 0
0918 0000e58 	lw.s	%f0, 0(%r4)
0919 0000e5c 	addi	%r4, %r2, 0
0920 0000e60 	lw.s	%f1, 0(%r4)
0921 0000e64 	addi	%r4, %r3, 0
0922 0000e68 	lw.s	%f2, 0(%r4)
0923 0000e6c 	mul.s	%f1, %f1, %f2
0924 0000e70 	add.s	%f0, %f0, %f1
0925 0000e74 	addi	%r4, %r1, 0
0926 0000e78 	sw.s	%f0, 0(%r4)
0927 0000e7c 	addi	%r4, %r1, 1
0928 0000e80 	lw.s	%f0, 0(%r4)
0929 0000e84 	addi	%r4, %r2, 1
0930 0000e88 	lw.s	%f1, 0(%r4)
0931 0000e8c 	addi	%r4, %r3, 1
0932 0000e90 	lw.s	%f2, 0(%r4)
0933 0000e94 	mul.s	%f1, %f1, %f2
0934 0000e98 	add.s	%f0, %f0, %f1
0935 0000e9c 	addi	%r4, %r1, 1
0936 0000ea0 	sw.s	%f0, 0(%r4)
0937 0000ea4 	addi	%r4, %r1, 2
0938 0000ea8 	lw.s	%f0, 0(%r4)
0939 0000eac 	addi	%r2, %r2, 2
0940 0000eb0 	lw.s	%f1, 0(%r2)
0941 0000eb4 	addi	%r2, %r3, 2
0942 0000eb8 	lw.s	%f2, 0(%r2)
0943 0000ebc 	mul.s	%f1, %f1, %f2
0944 0000ec0 	add.s	%f0, %f0, %f1
0945 0000ec4 	addi	%r1, %r1, 2
0946 0000ec8 	sw.s	%f0, 0(%r1)
0947 0000ecc 	jr	%r31
0948 0000ed0 o_texturetype.2711:
0948 0000ed0 	lw	%r1, 0(%r1)
0949 0000ed4 	add	%r1, %r0, %r1
0950 0000ed8 	jr	%r31
0951 0000edc o_form.2713:
0951 0000edc 	lw	%r1, 1(%r1)
0952 0000ee0 	add	%r1, %r0, %r1
0953 0000ee4 	jr	%r31
0954 0000ee8 o_reflectiontype.2715:
0954 0000ee8 	lw	%r1, 2(%r1)
0955 0000eec 	add	%r1, %r0, %r1
0956 0000ef0 	jr	%r31
0957 0000ef4 o_isinvert.2717:
0957 0000ef4 	lw	%r1, 6(%r1)
0958 0000ef8 	add	%r1, %r0, %r1
0959 0000efc 	jr	%r31
0960 0000f00 o_isrot.2719:
0960 0000f00 	lw	%r1, 3(%r1)
0961 0000f04 	add	%r1, %r0, %r1
0962 0000f08 	jr	%r31
0963 0000f0c o_param_a.2721:
0963 0000f0c 	lw	%r1, 4(%r1)
0964 0000f10 	addi	%r1, %r1, 0
0965 0000f14 	lw.s	%f0, 0(%r1)
0966 0000f18 	jr	%r31
0967 0000f1c o_param_b.2723:
0967 0000f1c 	lw	%r1, 4(%r1)
0968 0000f20 	addi	%r1, %r1, 1
0969 0000f24 	lw.s	%f0, 0(%r1)
0970 0000f28 	jr	%r31
0971 0000f2c o_param_c.2725:
0971 0000f2c 	lw	%r1, 4(%r1)
0972 0000f30 	addi	%r1, %r1, 2
0973 0000f34 	lw.s	%f0, 0(%r1)
0974 0000f38 	jr	%r31
0975 0000f3c o_param_abc.2727:
0975 0000f3c 	lw	%r1, 4(%r1)
0976 0000f40 	add	%r1, %r0, %r1
0977 0000f44 	jr	%r31
0978 0000f48 o_param_x.2729:
0978 0000f48 	lw	%r1, 5(%r1)
0979 0000f4c 	addi	%r1, %r1, 0
0980 0000f50 	lw.s	%f0, 0(%r1)
0981 0000f54 	jr	%r31
0982 0000f58 o_param_y.2731:
0982 0000f58 	lw	%r1, 5(%r1)
0983 0000f5c 	addi	%r1, %r1, 1
0984 0000f60 	lw.s	%f0, 0(%r1)
0985 0000f64 	jr	%r31
0986 0000f68 o_param_z.2733:
0986 0000f68 	lw	%r1, 5(%r1)
0987 0000f6c 	addi	%r1, %r1, 2
0988 0000f70 	lw.s	%f0, 0(%r1)
0989 0000f74 	jr	%r31
0990 0000f78 o_diffuse.2735:
0990 0000f78 	lw	%r1, 7(%r1)
0991 0000f7c 	addi	%r1, %r1, 0
0992 0000f80 	lw.s	%f0, 0(%r1)
0993 0000f84 	jr	%r31
0994 0000f88 o_hilight.2737:
0994 0000f88 	lw	%r1, 7(%r1)
0995 0000f8c 	addi	%r1, %r1, 1
0996 0000f90 	lw.s	%f0, 0(%r1)
0997 0000f94 	jr	%r31
0998 0000f98 o_color_red.2739:
0998 0000f98 	lw	%r1, 8(%r1)
0999 0000f9c 	addi	%r1, %r1, 0
1000 0000fa0 	lw.s	%f0, 0(%r1)
1001 0000fa4 	jr	%r31
1002 0000fa8 o_color_green.2741:
1002 0000fa8 	lw	%r1, 8(%r1)
1003 0000fac 	addi	%r1, %r1, 1
1004 0000fb0 	lw.s	%f0, 0(%r1)
1005 0000fb4 	jr	%r31
1006 0000fb8 o_color_blue.2743:
1006 0000fb8 	lw	%r1, 8(%r1)
1007 0000fbc 	addi	%r1, %r1, 2
1008 0000fc0 	lw.s	%f0, 0(%r1)
1009 0000fc4 	jr	%r31
1010 0000fc8 o_param_r1.2745:
1010 0000fc8 	lw	%r1, 9(%r1)
1011 0000fcc 	addi	%r1, %r1, 0
1012 0000fd0 	lw.s	%f0, 0(%r1)
1013 0000fd4 	jr	%r31
1014 0000fd8 o_param_r2.2747:
1014 0000fd8 	lw	%r1, 9(%r1)
1015 0000fdc 	addi	%r1, %r1, 1
1016 0000fe0 	lw.s	%f0, 0(%r1)
1017 0000fe4 	jr	%r31
1018 0000fe8 o_param_r3.2749:
1018 0000fe8 	lw	%r1, 9(%r1)
1019 0000fec 	addi	%r1, %r1, 2
1020 0000ff0 	lw.s	%f0, 0(%r1)
1021 0000ff4 	jr	%r31
1022 0000ff8 o_param_ctbl.2751:
1022 0000ff8 	lw	%r1, 10(%r1)
1023 0000ffc 	add	%r1, %r0, %r1
1024 0001000 	jr	%r31
1025 0001004 p_rgb.2753:
1025 0001004 	lw	%r1, 0(%r1)
1026 0001008 	add	%r1, %r0, %r1
1027 000100c 	jr	%r31
1028 0001010 p_intersection_points.2755:
1028 0001010 	lw	%r1, 1(%r1)
1029 0001014 	add	%r1, %r0, %r1
1030 0001018 	jr	%r31
1031 000101c p_surface_ids.2757:
1031 000101c 	lw	%r1, 2(%r1)
1032 0001020 	add	%r1, %r0, %r1
1033 0001024 	jr	%r31
1034 0001028 p_calc_diffuse.2759:
1034 0001028 	lw	%r1, 3(%r1)
1035 000102c 	add	%r1, %r0, %r1
1036 0001030 	jr	%r31
1037 0001034 p_energy.2761:
1037 0001034 	lw	%r1, 4(%r1)
1038 0001038 	add	%r1, %r0, %r1
1039 000103c 	jr	%r31
1040 0001040 p_received_ray_20percent.2763:
1040 0001040 	lw	%r1, 5(%r1)
1041 0001044 	add	%r1, %r0, %r1
1042 0001048 	jr	%r31
1043 000104c p_group_id.2765:
1043 000104c 	lw	%r1, 6(%r1)
1044 0001050 	addi	%r1, %r1, 0
1045 0001054 	lw	%r1, 0(%r1)
1046 0001058 	jr	%r31
1047 000105c p_set_group_id.2767:
1047 000105c 	lw	%r1, 6(%r1)
1048 0001060 	addi	%r1, %r1, 0
1049 0001064 	sw	%r2, 0(%r1)
1050 0001068 	jr	%r31
1051 000106c p_nvectors.2770:
1051 000106c 	lw	%r1, 7(%r1)
1052 0001070 	add	%r1, %r0, %r1
1053 0001074 	jr	%r31
1054 0001078 d_vec.2772:
1054 0001078 	lw	%r1, 0(%r1)
1055 000107c 	add	%r1, %r0, %r1
1056 0001080 	jr	%r31
1057 0001084 d_const.2774:
1057 0001084 	lw	%r1, 1(%r1)
1058 0001088 	add	%r1, %r0, %r1
1059 000108c 	jr	%r31
1060 0001090 r_surface_id.2776:
1060 0001090 	lw	%r1, 0(%r1)
1061 0001094 	add	%r1, %r0, %r1
1062 0001098 	jr	%r31
1063 000109c r_dvec.2778:
1063 000109c 	lw	%r1, 1(%r1)
1064 00010a0 	add	%r1, %r0, %r1
1065 00010a4 	jr	%r31
1066 00010a8 r_bright.2780:
1066 00010a8 	lw.s	%f0, 2(%r1)
1067 00010ac 	mov.s	%f0, %f0
1068 00010b0 	jr	%r31
1069 00010b4 rad.2782:
1069 00010b4 	la	%r1, l.6596
1071 00010bc 	lw.s	%f1, 0(%r1)
1072 00010c0 	mul.s	%f0, %f0, %f1
1073 00010c4 	jr	%r31
1074 00010c8 read_screen_settings.2784:
1074 00010c8 	sw	%r31, 0(%r30)
1075 00010cc 	addi	%r30, %r30, 1
1076 00010d0 	jal	min_caml_read_float
1077 00010d4 	addi	%r30, %r30, -1
1078 00010d8 	lw	%r31, 0(%r30)
1079 00010dc 	la	%r1, const_array.6362
1081 00010e4 	addi	%r2, %r1, 0
1082 00010e8 	sw.s	%f0, 0(%r2)
1083 00010ec 	sw	%r1, 0(%r30)
1084 00010f0 	sw	%r31, 1(%r30)
1085 00010f4 	addi	%r30, %r30, 2
1086 00010f8 	jal	min_caml_read_float
1087 00010fc 	addi	%r30, %r30, -2
1088 0001100 	lw	%r31, 1(%r30)
1089 0001104 	lw	%r1, 0(%r30)
1090 0001108 	addi	%r2, %r1, 1
1091 000110c 	sw.s	%f0, 0(%r2)
1092 0001110 	sw	%r31, 1(%r30)
1093 0001114 	addi	%r30, %r30, 2
1094 0001118 	jal	min_caml_read_float
1095 000111c 	addi	%r30, %r30, -2
1096 0001120 	lw	%r31, 1(%r30)
1097 0001124 	lw	%r1, 0(%r30)
1098 0001128 	addi	%r2, %r1, 2
1099 000112c 	sw.s	%f0, 0(%r2)
1100 0001130 	sw	%r31, 1(%r30)
1101 0001134 	addi	%r30, %r30, 2
1102 0001138 	jal	min_caml_read_float
1103 000113c 	addi	%r30, %r30, -2
1104 0001140 	lw	%r31, 1(%r30)
1105 0001144 	sw	%r31, 1(%r30)
1106 0001148 	addi	%r30, %r30, 2
1107 000114c 	jal	rad.2782
1108 0001150 	addi	%r30, %r30, -2
1109 0001154 	lw	%r31, 1(%r30)
1110 0001158 	sw.s	%f0, 1(%r30)
1111 000115c 	sw	%r31, 2(%r30)
1112 0001160 	addi	%r30, %r30, 3
1113 0001164 	jal	cos.2644
1114 0001168 	addi	%r30, %r30, -3
1115 000116c 	lw	%r31, 2(%r30)
1116 0001170 	lw.s	%f1, 1(%r30)
1117 0001174 	sw.s	%f0, 2(%r30)
1118 0001178 	mov.s	%f0, %f1
1119 000117c 	sw	%r31, 3(%r30)
1120 0001180 	addi	%r30, %r30, 4
1121 0001184 	jal	sin.2646
1122 0001188 	addi	%r30, %r30, -4
1123 000118c 	lw	%r31, 3(%r30)
1124 0001190 	sw.s	%f0, 3(%r30)
1125 0001194 	sw	%r31, 4(%r30)
1126 0001198 	addi	%r30, %r30, 5
1127 000119c 	jal	min_caml_read_float
1128 00011a0 	addi	%r30, %r30, -5
1129 00011a4 	lw	%r31, 4(%r30)
1130 00011a8 	sw	%r31, 4(%r30)
1131 00011ac 	addi	%r30, %r30, 5
1132 00011b0 	jal	rad.2782
1133 00011b4 	addi	%r30, %r30, -5
1134 00011b8 	lw	%r31, 4(%r30)
1135 00011bc 	sw.s	%f0, 4(%r30)
1136 00011c0 	sw	%r31, 5(%r30)
1137 00011c4 	addi	%r30, %r30, 6
1138 00011c8 	jal	cos.2644
1139 00011cc 	addi	%r30, %r30, -6
1140 00011d0 	lw	%r31, 5(%r30)
1141 00011d4 	lw.s	%f1, 4(%r30)
1142 00011d8 	sw.s	%f0, 5(%r30)
1143 00011dc 	mov.s	%f0, %f1
1144 00011e0 	sw	%r31, 6(%r30)
1145 00011e4 	addi	%r30, %r30, 7
1146 00011e8 	jal	sin.2646
1147 00011ec 	addi	%r30, %r30, -7
1148 00011f0 	lw	%r31, 6(%r30)
1149 00011f4 	lw.s	%f1, 2(%r30)
1150 00011f8 	mul.s	%f2, %f1, %f0
1151 00011fc 	la	%r1, l.6601
1153 0001204 	lw.s	%f3, 0(%r1)
1154 0001208 	mul.s	%f2, %f2, %f3
1155 000120c 	la	%r1, const_array.6384
1157 0001214 	addi	%r2, %r1, 0
1158 0001218 	sw.s	%f2, 0(%r2)
1159 000121c 	la	%r2, l.6604
1161 0001224 	lw.s	%f2, 0(%r2)
1162 0001228 	lw.s	%f3, 3(%r30)
1163 000122c 	mul.s	%f2, %f3, %f2
1164 0001230 	addi	%r2, %r1, 1
1165 0001234 	sw.s	%f2, 0(%r2)
1166 0001238 	lw.s	%f2, 5(%r30)
1167 000123c 	mul.s	%f4, %f1, %f2
1168 0001240 	la	%r2, l.6601
1170 0001248 	lw.s	%f5, 0(%r2)
1171 000124c 	mul.s	%f4, %f4, %f5
1172 0001250 	addi	%r2, %r1, 2
1173 0001254 	sw.s	%f4, 0(%r2)
1174 0001258 	la	%r2, const_array.6382
1176 0001260 	addi	%r3, %r2, 0
1177 0001264 	sw.s	%f2, 0(%r3)
1178 0001268 	la	%r3, l.6401
1180 0001270 	lw.s	%f4, 0(%r3)
1181 0001274 	addi	%r3, %r2, 1
1182 0001278 	sw.s	%f4, 0(%r3)
1183 000127c 	sw	%r1, 6(%r30)
1184 0001280 	sw.s	%f0, 7(%r30)
1185 0001284 	sw	%r2, 8(%r30)
1186 0001288 	sw	%r31, 9(%r30)
1187 000128c 	addi	%r30, %r30, 10
1188 0001290 	jal	min_caml_fneg
1189 0001294 	addi	%r30, %r30, -10
1190 0001298 	lw	%r31, 9(%r30)
1191 000129c 	lw	%r1, 8(%r30)
1192 00012a0 	addi	%r1, %r1, 2
1193 00012a4 	sw.s	%f0, 0(%r1)
1194 00012a8 	lw.s	%f0, 3(%r30)
1195 00012ac 	sw	%r31, 9(%r30)
1196 00012b0 	addi	%r30, %r30, 10
1197 00012b4 	jal	min_caml_fneg
1198 00012b8 	addi	%r30, %r30, -10
1199 00012bc 	lw	%r31, 9(%r30)
1200 00012c0 	lw.s	%f1, 7(%r30)
1201 00012c4 	mul.s	%f0, %f0, %f1
1202 00012c8 	la	%r1, const_array.6383
1204 00012d0 	addi	%r2, %r1, 0
1205 00012d4 	sw.s	%f0, 0(%r2)
1206 00012d8 	lw.s	%f0, 2(%r30)
1207 00012dc 	sw	%r1, 9(%r30)
1208 00012e0 	sw	%r31, 10(%r30)
1209 00012e4 	addi	%r30, %r30, 11
1210 00012e8 	jal	min_caml_fneg
1211 00012ec 	addi	%r30, %r30, -11
1212 00012f0 	lw	%r31, 10(%r30)
1213 00012f4 	lw	%r1, 9(%r30)
1214 00012f8 	addi	%r2, %r1, 1
1215 00012fc 	sw.s	%f0, 0(%r2)
1216 0001300 	lw.s	%f0, 3(%r30)
1217 0001304 	sw	%r31, 10(%r30)
1218 0001308 	addi	%r30, %r30, 11
1219 000130c 	jal	min_caml_fneg
1220 0001310 	addi	%r30, %r30, -11
1221 0001314 	lw	%r31, 10(%r30)
1222 0001318 	lw.s	%f1, 5(%r30)
1223 000131c 	mul.s	%f0, %f0, %f1
1224 0001320 	lw	%r1, 9(%r30)
1225 0001324 	addi	%r1, %r1, 2
1226 0001328 	sw.s	%f0, 0(%r1)
1227 000132c 	lw	%r1, 0(%r30)
1228 0001330 	addi	%r2, %r1, 0
1229 0001334 	lw.s	%f0, 0(%r2)
1230 0001338 	lw	%r2, 6(%r30)
1231 000133c 	addi	%r3, %r2, 0
1232 0001340 	lw.s	%f1, 0(%r3)
1233 0001344 	sub.s	%f0, %f0, %f1
1234 0001348 	la	%r3, const_array.6363
1236 0001350 	addi	%r4, %r3, 0
1237 0001354 	sw.s	%f0, 0(%r4)
1238 0001358 	addi	%r4, %r1, 1
1239 000135c 	lw.s	%f0, 0(%r4)
1240 0001360 	addi	%r4, %r2, 1
1241 0001364 	lw.s	%f1, 0(%r4)
1242 0001368 	sub.s	%f0, %f0, %f1
1243 000136c 	addi	%r4, %r3, 1
1244 0001370 	sw.s	%f0, 0(%r4)
1245 0001374 	addi	%r1, %r1, 2
1246 0001378 	lw.s	%f0, 0(%r1)
1247 000137c 	addi	%r1, %r2, 2
1248 0001380 	lw.s	%f1, 0(%r1)
1249 0001384 	sub.s	%f0, %f0, %f1
1250 0001388 	addi	%r1, %r3, 2
1251 000138c 	sw.s	%f0, 0(%r1)
1252 0001390 	jr	%r31
1253 0001394 read_light.2786:
1253 0001394 	sw	%r31, 0(%r30)
1254 0001398 	addi	%r30, %r30, 1
1255 000139c 	jal	min_caml_read_int
1256 00013a0 	addi	%r30, %r30, -1
1257 00013a4 	lw	%r31, 0(%r30)
1258 00013a8 	sw	%r31, 0(%r30)
1259 00013ac 	addi	%r30, %r30, 1
1260 00013b0 	jal	min_caml_read_float
1261 00013b4 	addi	%r30, %r30, -1
1262 00013b8 	lw	%r31, 0(%r30)
1263 00013bc 	sw	%r31, 0(%r30)
1264 00013c0 	addi	%r30, %r30, 1
1265 00013c4 	jal	rad.2782
1266 00013c8 	addi	%r30, %r30, -1
1267 00013cc 	lw	%r31, 0(%r30)
1268 00013d0 	sw.s	%f0, 0(%r30)
1269 00013d4 	sw	%r31, 1(%r30)
1270 00013d8 	addi	%r30, %r30, 2
1271 00013dc 	jal	sin.2646
1272 00013e0 	addi	%r30, %r30, -2
1273 00013e4 	lw	%r31, 1(%r30)
1274 00013e8 	sw	%r31, 1(%r30)
1275 00013ec 	addi	%r30, %r30, 2
1276 00013f0 	jal	min_caml_fneg
1277 00013f4 	addi	%r30, %r30, -2
1278 00013f8 	lw	%r31, 1(%r30)
1279 00013fc 	la	%r1, const_array.6364
1281 0001404 	addi	%r2, %r1, 1
1282 0001408 	sw.s	%f0, 0(%r2)
1283 000140c 	sw	%r1, 1(%r30)
1284 0001410 	sw	%r31, 2(%r30)
1285 0001414 	addi	%r30, %r30, 3
1286 0001418 	jal	min_caml_read_float
1287 000141c 	addi	%r30, %r30, -3
1288 0001420 	lw	%r31, 2(%r30)
1289 0001424 	sw	%r31, 2(%r30)
1290 0001428 	addi	%r30, %r30, 3
1291 000142c 	jal	rad.2782
1292 0001430 	addi	%r30, %r30, -3
1293 0001434 	lw	%r31, 2(%r30)
1294 0001438 	lw.s	%f1, 0(%r30)
1295 000143c 	sw.s	%f0, 2(%r30)
1296 0001440 	mov.s	%f0, %f1
1297 0001444 	sw	%r31, 3(%r30)
1298 0001448 	addi	%r30, %r30, 4
1299 000144c 	jal	cos.2644
1300 0001450 	addi	%r30, %r30, -4
1301 0001454 	lw	%r31, 3(%r30)
1302 0001458 	lw.s	%f1, 2(%r30)
1303 000145c 	sw.s	%f0, 3(%r30)
1304 0001460 	mov.s	%f0, %f1
1305 0001464 	sw	%r31, 4(%r30)
1306 0001468 	addi	%r30, %r30, 5
1307 000146c 	jal	sin.2646
1308 0001470 	addi	%r30, %r30, -5
1309 0001474 	lw	%r31, 4(%r30)
1310 0001478 	lw.s	%f1, 3(%r30)
1311 000147c 	mul.s	%f0, %f1, %f0
1312 0001480 	lw	%r1, 1(%r30)
1313 0001484 	addi	%r2, %r1, 0
1314 0001488 	sw.s	%f0, 0(%r2)
1315 000148c 	lw.s	%f0, 2(%r30)
1316 0001490 	sw	%r31, 4(%r30)
1317 0001494 	addi	%r30, %r30, 5
1318 0001498 	jal	cos.2644
1319 000149c 	addi	%r30, %r30, -5
1320 00014a0 	lw	%r31, 4(%r30)
1321 00014a4 	lw.s	%f1, 3(%r30)
1322 00014a8 	mul.s	%f0, %f1, %f0
1323 00014ac 	lw	%r1, 1(%r30)
1324 00014b0 	addi	%r1, %r1, 2
1325 00014b4 	sw.s	%f0, 0(%r1)
1326 00014b8 	sw	%r31, 4(%r30)
1327 00014bc 	addi	%r30, %r30, 5
1328 00014c0 	jal	min_caml_read_float
1329 00014c4 	addi	%r30, %r30, -5
1330 00014c8 	lw	%r31, 4(%r30)
1331 00014cc 	la	%r1, const_array.6365
1333 00014d4 	addi	%r1, %r1, 0
1334 00014d8 	sw.s	%f0, 0(%r1)
1335 00014dc 	jr	%r31
1336 00014e0 rotate_quadratic_matrix.2788:
1336 00014e0 	addi	%r3, %r2, 0
1337 00014e4 	lw.s	%f0, 0(%r3)
1338 00014e8 	sw	%r1, 0(%r30)
1339 00014ec 	sw	%r2, 1(%r30)
1340 00014f0 	sw	%r31, 2(%r30)
1341 00014f4 	addi	%r30, %r30, 3
1342 00014f8 	jal	cos.2644
1343 00014fc 	addi	%r30, %r30, -3
1344 0001500 	lw	%r31, 2(%r30)
1345 0001504 	lw	%r1, 1(%r30)
1346 0001508 	addi	%r2, %r1, 0
1347 000150c 	lw.s	%f1, 0(%r2)
1348 0001510 	sw.s	%f0, 2(%r30)
1349 0001514 	mov.s	%f0, %f1
1350 0001518 	sw	%r31, 3(%r30)
1351 000151c 	addi	%r30, %r30, 4
1352 0001520 	jal	sin.2646
1353 0001524 	addi	%r30, %r30, -4
1354 0001528 	lw	%r31, 3(%r30)
1355 000152c 	lw	%r1, 1(%r30)
1356 0001530 	addi	%r2, %r1, 1
1357 0001534 	lw.s	%f1, 0(%r2)
1358 0001538 	sw.s	%f0, 3(%r30)
1359 000153c 	mov.s	%f0, %f1
1360 0001540 	sw	%r31, 4(%r30)
1361 0001544 	addi	%r30, %r30, 5
1362 0001548 	jal	cos.2644
1363 000154c 	addi	%r30, %r30, -5
1364 0001550 	lw	%r31, 4(%r30)
1365 0001554 	lw	%r1, 1(%r30)
1366 0001558 	addi	%r2, %r1, 1
1367 000155c 	lw.s	%f1, 0(%r2)
1368 0001560 	sw.s	%f0, 4(%r30)
1369 0001564 	mov.s	%f0, %f1
1370 0001568 	sw	%r31, 5(%r30)
1371 000156c 	addi	%r30, %r30, 6
1372 0001570 	jal	sin.2646
1373 0001574 	addi	%r30, %r30, -6
1374 0001578 	lw	%r31, 5(%r30)
1375 000157c 	lw	%r1, 1(%r30)
1376 0001580 	addi	%r2, %r1, 2
1377 0001584 	lw.s	%f1, 0(%r2)
1378 0001588 	sw.s	%f0, 5(%r30)
1379 000158c 	mov.s	%f0, %f1
1380 0001590 	sw	%r31, 6(%r30)
1381 0001594 	addi	%r30, %r30, 7
1382 0001598 	jal	cos.2644
1383 000159c 	addi	%r30, %r30, -7
1384 00015a0 	lw	%r31, 6(%r30)
1385 00015a4 	lw	%r1, 1(%r30)
1386 00015a8 	addi	%r2, %r1, 2
1387 00015ac 	lw.s	%f1, 0(%r2)
1388 00015b0 	sw.s	%f0, 6(%r30)
1389 00015b4 	mov.s	%f0, %f1
1390 00015b8 	sw	%r31, 7(%r30)
1391 00015bc 	addi	%r30, %r30, 8
1392 00015c0 	jal	sin.2646
1393 00015c4 	addi	%r30, %r30, -8
1394 00015c8 	lw	%r31, 7(%r30)
1395 00015cc 	lw.s	%f1, 6(%r30)
1396 00015d0 	lw.s	%f2, 4(%r30)
1397 00015d4 	mul.s	%f3, %f2, %f1
1398 00015d8 	lw.s	%f4, 5(%r30)
1399 00015dc 	lw.s	%f5, 3(%r30)
1400 00015e0 	mul.s	%f6, %f5, %f4
1401 00015e4 	mul.s	%f6, %f6, %f1
1402 00015e8 	lw.s	%f7, 2(%r30)
1403 00015ec 	mul.s	%f8, %f7, %f0
1404 00015f0 	sub.s	%f6, %f6, %f8
1405 00015f4 	mul.s	%f8, %f7, %f4
1406 00015f8 	mul.s	%f8, %f8, %f1
1407 00015fc 	mul.s	%f9, %f5, %f0
1408 0001600 	add.s	%f8, %f8, %f9
1409 0001604 	mul.s	%f9, %f2, %f0
1410 0001608 	mul.s	%f10, %f5, %f4
1411 000160c 	mul.s	%f10, %f10, %f0
1412 0001610 	mul.s	%f11, %f7, %f1
1413 0001614 	add.s	%f10, %f10, %f11
1414 0001618 	mul.s	%f11, %f7, %f4
1415 000161c 	mul.s	%f0, %f11, %f0
1416 0001620 	mul.s	%f1, %f5, %f1
1417 0001624 	sub.s	%f0, %f0, %f1
1418 0001628 	sw.s	%f0, 7(%r30)
1419 000162c 	sw.s	%f8, 8(%r30)
1420 0001630 	sw.s	%f10, 9(%r30)
1421 0001634 	sw.s	%f6, 10(%r30)
1422 0001638 	sw.s	%f9, 11(%r30)
1423 000163c 	sw.s	%f3, 12(%r30)
1424 0001640 	mov.s	%f0, %f4
1425 0001644 	sw	%r31, 13(%r30)
1426 0001648 	addi	%r30, %r30, 14
1427 000164c 	jal	min_caml_fneg
1428 0001650 	addi	%r30, %r30, -14
1429 0001654 	lw	%r31, 13(%r30)
1430 0001658 	lw.s	%f1, 4(%r30)
1431 000165c 	lw.s	%f2, 3(%r30)
1432 0001660 	mul.s	%f2, %f2, %f1
1433 0001664 	lw.s	%f3, 2(%r30)
1434 0001668 	mul.s	%f1, %f3, %f1
1435 000166c 	lw	%r1, 0(%r30)
1436 0001670 	addi	%r2, %r1, 0
1437 0001674 	lw.s	%f3, 0(%r2)
1438 0001678 	addi	%r2, %r1, 1
1439 000167c 	lw.s	%f4, 0(%r2)
1440 0001680 	addi	%r2, %r1, 2
1441 0001684 	lw.s	%f5, 0(%r2)
1442 0001688 	lw.s	%f6, 12(%r30)
1443 000168c 	sw.s	%f1, 13(%r30)
1444 0001690 	sw.s	%f2, 14(%r30)
1445 0001694 	sw.s	%f3, 15(%r30)
1446 0001698 	sw.s	%f5, 16(%r30)
1447 000169c 	sw.s	%f0, 17(%r30)
1448 00016a0 	sw.s	%f4, 18(%r30)
1449 00016a4 	mov.s	%f0, %f6
1450 00016a8 	sw	%r31, 19(%r30)
1451 00016ac 	addi	%r30, %r30, 20
1452 00016b0 	jal	fsqr.2638
1453 00016b4 	addi	%r30, %r30, -20
1454 00016b8 	lw	%r31, 19(%r30)
1455 00016bc 	lw.s	%f1, 15(%r30)
1456 00016c0 	mul.s	%f0, %f1, %f0
1457 00016c4 	lw.s	%f2, 11(%r30)
1458 00016c8 	sw.s	%f0, 19(%r30)
1459 00016cc 	mov.s	%f0, %f2
1460 00016d0 	sw	%r31, 20(%r30)
1461 00016d4 	addi	%r30, %r30, 21
1462 00016d8 	jal	fsqr.2638
1463 00016dc 	addi	%r30, %r30, -21
1464 00016e0 	lw	%r31, 20(%r30)
1465 00016e4 	lw.s	%f1, 18(%r30)
1466 00016e8 	mul.s	%f0, %f1, %f0
1467 00016ec 	lw.s	%f2, 19(%r30)
1468 00016f0 	add.s	%f0, %f2, %f0
1469 00016f4 	lw.s	%f2, 17(%r30)
1470 00016f8 	sw.s	%f0, 20(%r30)
1471 00016fc 	mov.s	%f0, %f2
1472 0001700 	sw	%r31, 21(%r30)
1473 0001704 	addi	%r30, %r30, 22
1474 0001708 	jal	fsqr.2638
1475 000170c 	addi	%r30, %r30, -22
1476 0001710 	lw	%r31, 21(%r30)
1477 0001714 	lw.s	%f1, 16(%r30)
1478 0001718 	mul.s	%f0, %f1, %f0
1479 000171c 	lw.s	%f2, 20(%r30)
1480 0001720 	add.s	%f0, %f2, %f0
1481 0001724 	lw	%r1, 0(%r30)
1482 0001728 	addi	%r2, %r1, 0
1483 000172c 	sw.s	%f0, 0(%r2)
1484 0001730 	lw.s	%f0, 10(%r30)
1485 0001734 	sw	%r31, 21(%r30)
1486 0001738 	addi	%r30, %r30, 22
1487 000173c 	jal	fsqr.2638
1488 0001740 	addi	%r30, %r30, -22
1489 0001744 	lw	%r31, 21(%r30)
1490 0001748 	lw.s	%f1, 15(%r30)
1491 000174c 	mul.s	%f0, %f1, %f0
1492 0001750 	lw.s	%f2, 9(%r30)
1493 0001754 	sw.s	%f0, 21(%r30)
1494 0001758 	mov.s	%f0, %f2
1495 000175c 	sw	%r31, 22(%r30)
1496 0001760 	addi	%r30, %r30, 23
1497 0001764 	jal	fsqr.2638
1498 0001768 	addi	%r30, %r30, -23
1499 000176c 	lw	%r31, 22(%r30)
1500 0001770 	lw.s	%f1, 18(%r30)
1501 0001774 	mul.s	%f0, %f1, %f0
1502 0001778 	lw.s	%f2, 21(%r30)
1503 000177c 	add.s	%f0, %f2, %f0
1504 0001780 	lw.s	%f2, 14(%r30)
1505 0001784 	sw.s	%f0, 22(%r30)
1506 0001788 	mov.s	%f0, %f2
1507 000178c 	sw	%r31, 23(%r30)
1508 0001790 	addi	%r30, %r30, 24
1509 0001794 	jal	fsqr.2638
1510 0001798 	addi	%r30, %r30, -24
1511 000179c 	lw	%r31, 23(%r30)
1512 00017a0 	lw.s	%f1, 16(%r30)
1513 00017a4 	mul.s	%f0, %f1, %f0
1514 00017a8 	lw.s	%f2, 22(%r30)
1515 00017ac 	add.s	%f0, %f2, %f0
1516 00017b0 	lw	%r1, 0(%r30)
1517 00017b4 	addi	%r2, %r1, 1
1518 00017b8 	sw.s	%f0, 0(%r2)
1519 00017bc 	lw.s	%f0, 8(%r30)
1520 00017c0 	sw	%r31, 23(%r30)
1521 00017c4 	addi	%r30, %r30, 24
1522 00017c8 	jal	fsqr.2638
1523 00017cc 	addi	%r30, %r30, -24
1524 00017d0 	lw	%r31, 23(%r30)
1525 00017d4 	lw.s	%f1, 15(%r30)
1526 00017d8 	mul.s	%f0, %f1, %f0
1527 00017dc 	lw.s	%f2, 7(%r30)
1528 00017e0 	sw.s	%f0, 23(%r30)
1529 00017e4 	mov.s	%f0, %f2
1530 00017e8 	sw	%r31, 24(%r30)
1531 00017ec 	addi	%r30, %r30, 25
1532 00017f0 	jal	fsqr.2638
1533 00017f4 	addi	%r30, %r30, -25
1534 00017f8 	lw	%r31, 24(%r30)
1535 00017fc 	lw.s	%f1, 18(%r30)
1536 0001800 	mul.s	%f0, %f1, %f0
1537 0001804 	lw.s	%f2, 23(%r30)
1538 0001808 	add.s	%f0, %f2, %f0
1539 000180c 	lw.s	%f2, 13(%r30)
1540 0001810 	sw.s	%f0, 24(%r30)
1541 0001814 	mov.s	%f0, %f2
1542 0001818 	sw	%r31, 25(%r30)
1543 000181c 	addi	%r30, %r30, 26
1544 0001820 	jal	fsqr.2638
1545 0001824 	addi	%r30, %r30, -26
1546 0001828 	lw	%r31, 25(%r30)
1547 000182c 	lw.s	%f1, 16(%r30)
1548 0001830 	mul.s	%f0, %f1, %f0
1549 0001834 	lw.s	%f2, 24(%r30)
1550 0001838 	add.s	%f0, %f2, %f0
1551 000183c 	lw	%r1, 0(%r30)
1552 0001840 	addi	%r1, %r1, 2
1553 0001844 	sw.s	%f0, 0(%r1)
1554 0001848 	la	%r1, l.6641
1556 0001850 	lw.s	%f0, 0(%r1)
1557 0001854 	lw.s	%f2, 10(%r30)
1558 0001858 	lw.s	%f3, 15(%r30)
1559 000185c 	mul.s	%f4, %f3, %f2
1560 0001860 	lw.s	%f5, 8(%r30)
1561 0001864 	mul.s	%f4, %f4, %f5
1562 0001868 	lw.s	%f6, 9(%r30)
1563 000186c 	lw.s	%f7, 18(%r30)
1564 0001870 	mul.s	%f8, %f7, %f6
1565 0001874 	lw.s	%f9, 7(%r30)
1566 0001878 	mul.s	%f8, %f8, %f9
1567 000187c 	add.s	%f4, %f4, %f8
1568 0001880 	lw.s	%f8, 14(%r30)
1569 0001884 	mul.s	%f10, %f1, %f8
1570 0001888 	lw.s	%f11, 13(%r30)
1571 000188c 	mul.s	%f10, %f10, %f11
1572 0001890 	add.s	%f4, %f4, %f10
1573 0001894 	mul.s	%f0, %f0, %f4
1574 0001898 	lw	%r1, 1(%r30)
1575 000189c 	addi	%r2, %r1, 0
1576 00018a0 	sw.s	%f0, 0(%r2)
1577 00018a4 	la	%r2, l.6641
1579 00018ac 	lw.s	%f0, 0(%r2)
1580 00018b0 	lw.s	%f4, 12(%r30)
1581 00018b4 	mul.s	%f10, %f3, %f4
1582 00018b8 	mul.s	%f5, %f10, %f5
1583 00018bc 	lw.s	%f10, 11(%r30)
1584 00018c0 	mul.s	%f12, %f7, %f10
1585 00018c4 	mul.s	%f9, %f12, %f9
1586 00018c8 	add.s	%f5, %f5, %f9
1587 00018cc 	lw.s	%f9, 17(%r30)
1588 00018d0 	mul.s	%f12, %f1, %f9
1589 00018d4 	mul.s	%f11, %f12, %f11
1590 00018d8 	add.s	%f5, %f5, %f11
1591 00018dc 	mul.s	%f0, %f0, %f5
1592 00018e0 	addi	%r2, %r1, 1
1593 00018e4 	sw.s	%f0, 0(%r2)
1594 00018e8 	la	%r2, l.6641
1596 00018f0 	lw.s	%f0, 0(%r2)
1597 00018f4 	mul.s	%f3, %f3, %f4
1598 00018f8 	mul.s	%f2, %f3, %f2
1599 00018fc 	mul.s	%f3, %f7, %f10
1600 0001900 	mul.s	%f3, %f3, %f6
1601 0001904 	add.s	%f2, %f2, %f3
1602 0001908 	mul.s	%f1, %f1, %f9
1603 000190c 	mul.s	%f1, %f1, %f8
1604 0001910 	add.s	%f1, %f2, %f1
1605 0001914 	mul.s	%f0, %f0, %f1
1606 0001918 	addi	%r1, %r1, 2
1607 000191c 	sw.s	%f0, 0(%r1)
1608 0001920 	jr	%r31
1609 0001924 read_nth_object.2791:
1609 0001924 	sw	%r1, 0(%r30)
1610 0001928 	sw	%r31, 1(%r30)
1611 000192c 	addi	%r30, %r30, 2
1612 0001930 	jal	min_caml_read_int
1613 0001934 	addi	%r30, %r30, -2
1614 0001938 	lw	%r31, 1(%r30)
1615 000193c 	la	%r2, const_array.6361
1617 0001944 	addi	%r26, %r0, -1
1618 0001948 	bne	%r1, %r26, beq_else.8962
1619 000194c 	addi	%r1, %r0, 0
1620 0001950 	jr	%r31
1621 0001954 beq_else.8962:
1621 0001954 	sw	%r2, 1(%r30)
1622 0001958 	sw	%r1, 2(%r30)
1623 000195c 	sw	%r31, 3(%r30)
1624 0001960 	addi	%r30, %r30, 4
1625 0001964 	jal	min_caml_read_int
1626 0001968 	addi	%r30, %r30, -4
1627 000196c 	lw	%r31, 3(%r30)
1628 0001970 	sw	%r1, 3(%r30)
1629 0001974 	sw	%r31, 4(%r30)
1630 0001978 	addi	%r30, %r30, 5
1631 000197c 	jal	min_caml_read_int
1632 0001980 	addi	%r30, %r30, -5
1633 0001984 	lw	%r31, 4(%r30)
1634 0001988 	sw	%r1, 4(%r30)
1635 000198c 	sw	%r31, 5(%r30)
1636 0001990 	addi	%r30, %r30, 6
1637 0001994 	jal	min_caml_read_int
1638 0001998 	addi	%r30, %r30, -6
1639 000199c 	lw	%r31, 5(%r30)
1640 00019a0 	addi	%r2, %r0, 3
1641 00019a4 	la	%r3, l.6401
1643 00019ac 	lw.s	%f0, 0(%r3)
1644 00019b0 	sw	%r1, 5(%r30)
1645 00019b4 	addi	%r1, %r2, 0
1646 00019b8 	sw	%r31, 6(%r30)
1647 00019bc 	addi	%r30, %r30, 7
1648 00019c0 	jal	min_caml_create_float_array
1649 00019c4 	addi	%r30, %r30, -7
1650 00019c8 	lw	%r31, 6(%r30)
1651 00019cc 	sw	%r1, 6(%r30)
1652 00019d0 	sw	%r31, 7(%r30)
1653 00019d4 	addi	%r30, %r30, 8
1654 00019d8 	jal	min_caml_read_float
1655 00019dc 	addi	%r30, %r30, -8
1656 00019e0 	lw	%r31, 7(%r30)
1657 00019e4 	lw	%r1, 6(%r30)
1658 00019e8 	addi	%r2, %r1, 0
1659 00019ec 	sw.s	%f0, 0(%r2)
1660 00019f0 	sw	%r31, 7(%r30)
1661 00019f4 	addi	%r30, %r30, 8
1662 00019f8 	jal	min_caml_read_float
1663 00019fc 	addi	%r30, %r30, -8
1664 0001a00 	lw	%r31, 7(%r30)
1665 0001a04 	lw	%r1, 6(%r30)
1666 0001a08 	addi	%r2, %r1, 1
1667 0001a0c 	sw.s	%f0, 0(%r2)
1668 0001a10 	sw	%r31, 7(%r30)
1669 0001a14 	addi	%r30, %r30, 8
1670 0001a18 	jal	min_caml_read_float
1671 0001a1c 	addi	%r30, %r30, -8
1672 0001a20 	lw	%r31, 7(%r30)
1673 0001a24 	lw	%r1, 6(%r30)
1674 0001a28 	addi	%r2, %r1, 2
1675 0001a2c 	sw.s	%f0, 0(%r2)
1676 0001a30 	addi	%r2, %r0, 3
1677 0001a34 	la	%r3, l.6401
1679 0001a3c 	lw.s	%f0, 0(%r3)
1680 0001a40 	addi	%r1, %r2, 0
1681 0001a44 	sw	%r31, 7(%r30)
1682 0001a48 	addi	%r30, %r30, 8
1683 0001a4c 	jal	min_caml_create_float_array
1684 0001a50 	addi	%r30, %r30, -8
1685 0001a54 	lw	%r31, 7(%r30)
1686 0001a58 	sw	%r1, 7(%r30)
1687 0001a5c 	sw	%r31, 8(%r30)
1688 0001a60 	addi	%r30, %r30, 9
1689 0001a64 	jal	min_caml_read_float
1690 0001a68 	addi	%r30, %r30, -9
1691 0001a6c 	lw	%r31, 8(%r30)
1692 0001a70 	lw	%r1, 7(%r30)
1693 0001a74 	addi	%r2, %r1, 0
1694 0001a78 	sw.s	%f0, 0(%r2)
1695 0001a7c 	sw	%r31, 8(%r30)
1696 0001a80 	addi	%r30, %r30, 9
1697 0001a84 	jal	min_caml_read_float
1698 0001a88 	addi	%r30, %r30, -9
1699 0001a8c 	lw	%r31, 8(%r30)
1700 0001a90 	lw	%r1, 7(%r30)
1701 0001a94 	addi	%r2, %r1, 1
1702 0001a98 	sw.s	%f0, 0(%r2)
1703 0001a9c 	sw	%r31, 8(%r30)
1704 0001aa0 	addi	%r30, %r30, 9
1705 0001aa4 	jal	min_caml_read_float
1706 0001aa8 	addi	%r30, %r30, -9
1707 0001aac 	lw	%r31, 8(%r30)
1708 0001ab0 	lw	%r1, 7(%r30)
1709 0001ab4 	addi	%r2, %r1, 2
1710 0001ab8 	sw.s	%f0, 0(%r2)
1711 0001abc 	sw	%r31, 8(%r30)
1712 0001ac0 	addi	%r30, %r30, 9
1713 0001ac4 	jal	min_caml_read_float
1714 0001ac8 	addi	%r30, %r30, -9
1715 0001acc 	lw	%r31, 8(%r30)
1716 0001ad0 	sw	%r31, 8(%r30)
1717 0001ad4 	addi	%r30, %r30, 9
1718 0001ad8 	jal	fisneg.2632
1719 0001adc 	addi	%r30, %r30, -9
1720 0001ae0 	lw	%r31, 8(%r30)
1721 0001ae4 	addi	%r2, %r0, 2
1722 0001ae8 	la	%r3, l.6401
1724 0001af0 	lw.s	%f0, 0(%r3)
1725 0001af4 	sw	%r1, 8(%r30)
1726 0001af8 	addi	%r1, %r2, 0
1727 0001afc 	sw	%r31, 9(%r30)
1728 0001b00 	addi	%r30, %r30, 10
1729 0001b04 	jal	min_caml_create_float_array
1730 0001b08 	addi	%r30, %r30, -10
1731 0001b0c 	lw	%r31, 9(%r30)
1732 0001b10 	sw	%r1, 9(%r30)
1733 0001b14 	sw	%r31, 10(%r30)
1734 0001b18 	addi	%r30, %r30, 11
1735 0001b1c 	jal	min_caml_read_float
1736 0001b20 	addi	%r30, %r30, -11
1737 0001b24 	lw	%r31, 10(%r30)
1738 0001b28 	lw	%r1, 9(%r30)
1739 0001b2c 	addi	%r2, %r1, 0
1740 0001b30 	sw.s	%f0, 0(%r2)
1741 0001b34 	sw	%r31, 10(%r30)
1742 0001b38 	addi	%r30, %r30, 11
1743 0001b3c 	jal	min_caml_read_float
1744 0001b40 	addi	%r30, %r30, -11
1745 0001b44 	lw	%r31, 10(%r30)
1746 0001b48 	lw	%r1, 9(%r30)
1747 0001b4c 	addi	%r2, %r1, 1
1748 0001b50 	sw.s	%f0, 0(%r2)
1749 0001b54 	addi	%r2, %r0, 3
1750 0001b58 	la	%r3, l.6401
1752 0001b60 	lw.s	%f0, 0(%r3)
1753 0001b64 	addi	%r1, %r2, 0
1754 0001b68 	sw	%r31, 10(%r30)
1755 0001b6c 	addi	%r30, %r30, 11
1756 0001b70 	jal	min_caml_create_float_array
1757 0001b74 	addi	%r30, %r30, -11
1758 0001b78 	lw	%r31, 10(%r30)
1759 0001b7c 	sw	%r1, 10(%r30)
1760 0001b80 	sw	%r31, 11(%r30)
1761 0001b84 	addi	%r30, %r30, 12
1762 0001b88 	jal	min_caml_read_float
1763 0001b8c 	addi	%r30, %r30, -12
1764 0001b90 	lw	%r31, 11(%r30)
1765 0001b94 	lw	%r1, 10(%r30)
1766 0001b98 	addi	%r2, %r1, 0
1767 0001b9c 	sw.s	%f0, 0(%r2)
1768 0001ba0 	sw	%r31, 11(%r30)
1769 0001ba4 	addi	%r30, %r30, 12
1770 0001ba8 	jal	min_caml_read_float
1771 0001bac 	addi	%r30, %r30, -12
1772 0001bb0 	lw	%r31, 11(%r30)
1773 0001bb4 	lw	%r1, 10(%r30)
1774 0001bb8 	addi	%r2, %r1, 1
1775 0001bbc 	sw.s	%f0, 0(%r2)
1776 0001bc0 	sw	%r31, 11(%r30)
1777 0001bc4 	addi	%r30, %r30, 12
1778 0001bc8 	jal	min_caml_read_float
1779 0001bcc 	addi	%r30, %r30, -12
1780 0001bd0 	lw	%r31, 11(%r30)
1781 0001bd4 	lw	%r1, 10(%r30)
1782 0001bd8 	addi	%r2, %r1, 2
1783 0001bdc 	sw.s	%f0, 0(%r2)
1784 0001be0 	addi	%r2, %r0, 3
1785 0001be4 	la	%r3, l.6401
1787 0001bec 	lw.s	%f0, 0(%r3)
1788 0001bf0 	addi	%r1, %r2, 0
1789 0001bf4 	sw	%r31, 11(%r30)
1790 0001bf8 	addi	%r30, %r30, 12
1791 0001bfc 	jal	min_caml_create_float_array
1792 0001c00 	addi	%r30, %r30, -12
1793 0001c04 	lw	%r31, 11(%r30)
1794 0001c08 	lw	%r2, 5(%r30)
1795 0001c0c 	addi	%r26, %r0, 0
1796 0001c10 	bne	%r2, %r26, beq_else.8963
1797 0001c14 	j	beq_cont.8964
1798 0001c18 beq_else.8963:
1798 0001c18 	sw	%r1, 11(%r30)
1799 0001c1c 	sw	%r31, 12(%r30)
1800 0001c20 	addi	%r30, %r30, 13
1801 0001c24 	jal	min_caml_read_float
1802 0001c28 	addi	%r30, %r30, -13
1803 0001c2c 	lw	%r31, 12(%r30)
1804 0001c30 	sw	%r31, 12(%r30)
1805 0001c34 	addi	%r30, %r30, 13
1806 0001c38 	jal	rad.2782
1807 0001c3c 	addi	%r30, %r30, -13
1808 0001c40 	lw	%r31, 12(%r30)
1809 0001c44 	lw	%r1, 11(%r30)
1810 0001c48 	addi	%r2, %r1, 0
1811 0001c4c 	sw.s	%f0, 0(%r2)
1812 0001c50 	sw	%r31, 12(%r30)
1813 0001c54 	addi	%r30, %r30, 13
1814 0001c58 	jal	min_caml_read_float
1815 0001c5c 	addi	%r30, %r30, -13
1816 0001c60 	lw	%r31, 12(%r30)
1817 0001c64 	sw	%r31, 12(%r30)
1818 0001c68 	addi	%r30, %r30, 13
1819 0001c6c 	jal	rad.2782
1820 0001c70 	addi	%r30, %r30, -13
1821 0001c74 	lw	%r31, 12(%r30)
1822 0001c78 	lw	%r1, 11(%r30)
1823 0001c7c 	addi	%r2, %r1, 1
1824 0001c80 	sw.s	%f0, 0(%r2)
1825 0001c84 	sw	%r31, 12(%r30)
1826 0001c88 	addi	%r30, %r30, 13
1827 0001c8c 	jal	min_caml_read_float
1828 0001c90 	addi	%r30, %r30, -13
1829 0001c94 	lw	%r31, 12(%r30)
1830 0001c98 	sw	%r31, 12(%r30)
1831 0001c9c 	addi	%r30, %r30, 13
1832 0001ca0 	jal	rad.2782
1833 0001ca4 	addi	%r30, %r30, -13
1834 0001ca8 	lw	%r31, 12(%r30)
1835 0001cac 	lw	%r1, 11(%r30)
1836 0001cb0 	addi	%r2, %r1, 2
1837 0001cb4 	sw.s	%f0, 0(%r2)
1838 0001cb8 beq_cont.8964:
1838 0001cb8 	lw	%r2, 3(%r30)
1839 0001cbc 	addi	%r26, %r0, 2
1840 0001cc0 	bne	%r2, %r26, beq_else.8965
1841 0001cc4 	addi	%r3, %r0, 1
1842 0001cc8 	j	beq_cont.8966
1843 0001ccc beq_else.8965:
1843 0001ccc 	lw	%r3, 8(%r30)
1844 0001cd0 	add	%r3, %r0, %r3
1845 0001cd4 beq_cont.8966:
1845 0001cd4 	addi	%r4, %r0, 4
1846 0001cd8 	la	%r5, l.6401
1848 0001ce0 	lw.s	%f0, 0(%r5)
1849 0001ce4 	sw	%r3, 12(%r30)
1850 0001ce8 	sw	%r1, 11(%r30)
1851 0001cec 	addi	%r1, %r4, 0
1852 0001cf0 	sw	%r31, 13(%r30)
1853 0001cf4 	addi	%r30, %r30, 14
1854 0001cf8 	jal	min_caml_create_float_array
1855 0001cfc 	addi	%r30, %r30, -14
1856 0001d00 	lw	%r31, 13(%r30)
1857 0001d04 	addi	%r2, %r29, 0
1858 0001d08 	addi	%r29, %r29, 11
1859 0001d0c 	sw	%r1, 10(%r2)
1860 0001d10 	lw	%r1, 11(%r30)
1861 0001d14 	sw	%r1, 9(%r2)
1862 0001d18 	lw	%r3, 10(%r30)
1863 0001d1c 	sw	%r3, 8(%r2)
1864 0001d20 	lw	%r3, 9(%r30)
1865 0001d24 	sw	%r3, 7(%r2)
1866 0001d28 	lw	%r3, 12(%r30)
1867 0001d2c 	sw	%r3, 6(%r2)
1868 0001d30 	lw	%r3, 7(%r30)
1869 0001d34 	sw	%r3, 5(%r2)
1870 0001d38 	lw	%r3, 6(%r30)
1871 0001d3c 	sw	%r3, 4(%r2)
1872 0001d40 	lw	%r4, 5(%r30)
1873 0001d44 	sw	%r4, 3(%r2)
1874 0001d48 	lw	%r5, 4(%r30)
1875 0001d4c 	sw	%r5, 2(%r2)
1876 0001d50 	lw	%r5, 3(%r30)
1877 0001d54 	sw	%r5, 1(%r2)
1878 0001d58 	lw	%r6, 2(%r30)
1879 0001d5c 	sw	%r6, 0(%r2)
1880 0001d60 	addi	%r2, %r2, 0
1881 0001d64 	lw	%r6, 0(%r30)
1882 0001d68 	lw	%r7, 1(%r30)
1883 0001d6c 	add	%r6, %r7, %r6
1884 0001d70 	sw	%r2, 0(%r6)
1885 0001d74 	addi	%r26, %r0, 3
1886 0001d78 	bne	%r5, %r26, beq_else.8967
1887 0001d7c 	addi	%r2, %r3, 0
1888 0001d80 	lw.s	%f0, 0(%r2)
1889 0001d84 	sw.s	%f0, 13(%r30)
1890 0001d88 	sw	%r31, 14(%r30)
1891 0001d8c 	addi	%r30, %r30, 15
1892 0001d90 	jal	fiszero.2634
1893 0001d94 	addi	%r30, %r30, -15
1894 0001d98 	lw	%r31, 14(%r30)
1895 0001d9c 	addi	%r26, %r0, 0
1896 0001da0 	bne	%r1, %r26, beq_else.8969
1897 0001da4 	lw.s	%f0, 13(%r30)
1898 0001da8 	sw	%r31, 14(%r30)
1899 0001dac 	addi	%r30, %r30, 15
1900 0001db0 	jal	sgn.2657
1901 0001db4 	addi	%r30, %r30, -15
1902 0001db8 	lw	%r31, 14(%r30)
1903 0001dbc 	lw.s	%f1, 13(%r30)
1904 0001dc0 	sw.s	%f0, 14(%r30)
1905 0001dc4 	mov.s	%f0, %f1
1906 0001dc8 	sw	%r31, 15(%r30)
1907 0001dcc 	addi	%r30, %r30, 16
1908 0001dd0 	jal	fsqr.2638
1909 0001dd4 	addi	%r30, %r30, -16
1910 0001dd8 	lw	%r31, 15(%r30)
1911 0001ddc 	lw.s	%f1, 14(%r30)
1912 0001de0 	div.s	%f0, %f1, %f0
1913 0001de4 	j	beq_cont.8970
1914 0001de8 beq_else.8969:
1914 0001de8 	la	%r1, l.6401
1916 0001df0 	lw.s	%f0, 0(%r1)
1917 0001df4 beq_cont.8970:
1917 0001df4 	lw	%r1, 6(%r30)
1918 0001df8 	addi	%r2, %r1, 0
1919 0001dfc 	sw.s	%f0, 0(%r2)
1920 0001e00 	addi	%r2, %r1, 1
1921 0001e04 	lw.s	%f0, 0(%r2)
1922 0001e08 	sw.s	%f0, 15(%r30)
1923 0001e0c 	sw	%r31, 16(%r30)
1924 0001e10 	addi	%r30, %r30, 17
1925 0001e14 	jal	fiszero.2634
1926 0001e18 	addi	%r30, %r30, -17
1927 0001e1c 	lw	%r31, 16(%r30)
1928 0001e20 	addi	%r26, %r0, 0
1929 0001e24 	bne	%r1, %r26, beq_else.8971
1930 0001e28 	lw.s	%f0, 15(%r30)
1931 0001e2c 	sw	%r31, 16(%r30)
1932 0001e30 	addi	%r30, %r30, 17
1933 0001e34 	jal	sgn.2657
1934 0001e38 	addi	%r30, %r30, -17
1935 0001e3c 	lw	%r31, 16(%r30)
1936 0001e40 	lw.s	%f1, 15(%r30)
1937 0001e44 	sw.s	%f0, 16(%r30)
1938 0001e48 	mov.s	%f0, %f1
1939 0001e4c 	sw	%r31, 17(%r30)
1940 0001e50 	addi	%r30, %r30, 18
1941 0001e54 	jal	fsqr.2638
1942 0001e58 	addi	%r30, %r30, -18
1943 0001e5c 	lw	%r31, 17(%r30)
1944 0001e60 	lw.s	%f1, 16(%r30)
1945 0001e64 	div.s	%f0, %f1, %f0
1946 0001e68 	j	beq_cont.8972
1947 0001e6c beq_else.8971:
1947 0001e6c 	la	%r1, l.6401
1949 0001e74 	lw.s	%f0, 0(%r1)
1950 0001e78 beq_cont.8972:
1950 0001e78 	lw	%r1, 6(%r30)
1951 0001e7c 	addi	%r2, %r1, 1
1952 0001e80 	sw.s	%f0, 0(%r2)
1953 0001e84 	addi	%r2, %r1, 2
1954 0001e88 	lw.s	%f0, 0(%r2)
1955 0001e8c 	sw.s	%f0, 17(%r30)
1956 0001e90 	sw	%r31, 18(%r30)
1957 0001e94 	addi	%r30, %r30, 19
1958 0001e98 	jal	fiszero.2634
1959 0001e9c 	addi	%r30, %r30, -19
1960 0001ea0 	lw	%r31, 18(%r30)
1961 0001ea4 	addi	%r26, %r0, 0
1962 0001ea8 	bne	%r1, %r26, beq_else.8973
1963 0001eac 	lw.s	%f0, 17(%r30)
1964 0001eb0 	sw	%r31, 18(%r30)
1965 0001eb4 	addi	%r30, %r30, 19
1966 0001eb8 	jal	sgn.2657
1967 0001ebc 	addi	%r30, %r30, -19
1968 0001ec0 	lw	%r31, 18(%r30)
1969 0001ec4 	lw.s	%f1, 17(%r30)
1970 0001ec8 	sw.s	%f0, 18(%r30)
1971 0001ecc 	mov.s	%f0, %f1
1972 0001ed0 	sw	%r31, 19(%r30)
1973 0001ed4 	addi	%r30, %r30, 20
1974 0001ed8 	jal	fsqr.2638
1975 0001edc 	addi	%r30, %r30, -20
1976 0001ee0 	lw	%r31, 19(%r30)
1977 0001ee4 	lw.s	%f1, 18(%r30)
1978 0001ee8 	div.s	%f0, %f1, %f0
1979 0001eec 	j	beq_cont.8974
1980 0001ef0 beq_else.8973:
1980 0001ef0 	la	%r1, l.6401
1982 0001ef8 	lw.s	%f0, 0(%r1)
1983 0001efc beq_cont.8974:
1983 0001efc 	lw	%r1, 6(%r30)
1984 0001f00 	addi	%r2, %r1, 2
1985 0001f04 	sw.s	%f0, 0(%r2)
1986 0001f08 	j	beq_cont.8968
1987 0001f0c beq_else.8967:
1987 0001f0c 	addi	%r26, %r0, 2
1988 0001f10 	bne	%r5, %r26, beq_else.8975
1989 0001f14 	lw	%r2, 8(%r30)
1990 0001f18 	addi	%r26, %r0, 0
1991 0001f1c 	bne	%r2, %r26, beq_else.8977
1992 0001f20 	addi	%r2, %r0, 1
1993 0001f24 	j	beq_cont.8978
1994 0001f28 beq_else.8977:
1994 0001f28 	addi	%r2, %r0, 0
1995 0001f2c beq_cont.8978:
1995 0001f2c 	addi	%r1, %r3, 0
1996 0001f30 	sw	%r31, 19(%r30)
1997 0001f34 	addi	%r30, %r30, 20
1998 0001f38 	jal	vecunit_sgn.2683
1999 0001f3c 	addi	%r30, %r30, -20
2000 0001f40 	lw	%r31, 19(%r30)
2001 0001f44 	j	beq_cont.8976
2002 0001f48 beq_else.8975:
2002 0001f48 beq_cont.8976:
2002 0001f48 beq_cont.8968:
2002 0001f48 	lw	%r1, 5(%r30)
2003 0001f4c 	addi	%r26, %r0, 0
2004 0001f50 	bne	%r1, %r26, beq_else.8979
2005 0001f54 	j	beq_cont.8980
2006 0001f58 beq_else.8979:
2006 0001f58 	lw	%r1, 6(%r30)
2007 0001f5c 	lw	%r2, 11(%r30)
2008 0001f60 	sw	%r31, 19(%r30)
2009 0001f64 	addi	%r30, %r30, 20
2010 0001f68 	jal	rotate_quadratic_matrix.2788
2011 0001f6c 	addi	%r30, %r30, -20
2012 0001f70 	lw	%r31, 19(%r30)
2013 0001f74 beq_cont.8980:
2013 0001f74 	addi	%r1, %r0, 1
2014 0001f78 	jr	%r31
2015 0001f7c read_object.2793:
2015 0001f7c 	la	%r2, const_array.6358
2017 0001f84 	addi	%r26, %r0, 60
2018 0001f88 	slt	%r28, %r26, %r1
2019 0001f8c 	beq	%r28, %r0, bne_else.8981
2020 0001f90 	jr	%r31
2021 0001f94 bne_else.8981:
2021 0001f94 	sw	%r1, 0(%r30)
2022 0001f98 	sw	%r2, 1(%r30)
2023 0001f9c 	sw	%r31, 2(%r30)
2024 0001fa0 	addi	%r30, %r30, 3
2025 0001fa4 	jal	read_nth_object.2791
2026 0001fa8 	addi	%r30, %r30, -3
2027 0001fac 	lw	%r31, 2(%r30)
2028 0001fb0 	addi	%r26, %r0, 0
2029 0001fb4 	bne	%r1, %r26, beq_else.8983
2030 0001fb8 	lw	%r1, 1(%r30)
2031 0001fbc 	addi	%r1, %r1, 0
2032 0001fc0 	lw	%r2, 0(%r30)
2033 0001fc4 	sw	%r2, 0(%r1)
2034 0001fc8 	jr	%r31
2035 0001fcc beq_else.8983:
2035 0001fcc 	lw	%r1, 0(%r30)
2036 0001fd0 	addi	%r1, %r1, 1
2037 0001fd4 	j	read_object.2793
2038 0001fd8 read_all_object.2795:
2038 0001fd8 	addi	%r1, %r0, 0
2039 0001fdc 	j	read_object.2793
2040 0001fe0 read_net_item.2797:
2040 0001fe0 	sw	%r1, 0(%r30)
2041 0001fe4 	sw	%r31, 1(%r30)
2042 0001fe8 	addi	%r30, %r30, 2
2043 0001fec 	jal	min_caml_read_int
2044 0001ff0 	addi	%r30, %r30, -2
2045 0001ff4 	lw	%r31, 1(%r30)
2046 0001ff8 	addi	%r26, %r0, -1
2047 0001ffc 	bne	%r1, %r26, beq_else.8985
2048 0002000 	lw	%r1, 0(%r30)
2049 0002004 	addi	%r1, %r1, 1
2050 0002008 	addi	%r2, %r0, -1
2051 000200c 	j	min_caml_create_array
2052 0002010 beq_else.8985:
2052 0002010 	lw	%r2, 0(%r30)
2053 0002014 	addi	%r3, %r2, 1
2054 0002018 	sw	%r1, 1(%r30)
2055 000201c 	addi	%r1, %r3, 0
2056 0002020 	sw	%r31, 2(%r30)
2057 0002024 	addi	%r30, %r30, 3
2058 0002028 	jal	read_net_item.2797
2059 000202c 	addi	%r30, %r30, -3
2060 0002030 	lw	%r31, 2(%r30)
2061 0002034 	lw	%r2, 0(%r30)
2062 0002038 	add	%r2, %r1, %r2
2063 000203c 	lw	%r3, 1(%r30)
2064 0002040 	sw	%r3, 0(%r2)
2065 0002044 	add	%r1, %r0, %r1
2066 0002048 	jr	%r31
2067 000204c read_or_network.2799:
2067 000204c 	addi	%r2, %r0, 0
2068 0002050 	sw	%r1, 0(%r30)
2069 0002054 	addi	%r1, %r2, 0
2070 0002058 	sw	%r31, 1(%r30)
2071 000205c 	addi	%r30, %r30, 2
2072 0002060 	jal	read_net_item.2797
2073 0002064 	addi	%r30, %r30, -2
2074 0002068 	lw	%r31, 1(%r30)
2075 000206c 	addi	%r2, %r1, 0
2076 0002070 	addi	%r1, %r2, 0
2077 0002074 	lw	%r1, 0(%r1)
2078 0002078 	addi	%r26, %r0, -1
2079 000207c 	bne	%r1, %r26, beq_else.8986
2080 0002080 	lw	%r1, 0(%r30)
2081 0002084 	addi	%r1, %r1, 1
2082 0002088 	j	min_caml_create_array
2083 000208c beq_else.8986:
2083 000208c 	lw	%r1, 0(%r30)
2084 0002090 	addi	%r3, %r1, 1
2085 0002094 	sw	%r2, 1(%r30)
2086 0002098 	addi	%r1, %r3, 0
2087 000209c 	sw	%r31, 2(%r30)
2088 00020a0 	addi	%r30, %r30, 3
2089 00020a4 	jal	read_or_network.2799
2090 00020a8 	addi	%r30, %r30, -3
2091 00020ac 	lw	%r31, 2(%r30)
2092 00020b0 	lw	%r2, 0(%r30)
2093 00020b4 	add	%r2, %r1, %r2
2094 00020b8 	lw	%r3, 1(%r30)
2095 00020bc 	sw	%r3, 0(%r2)
2096 00020c0 	add	%r1, %r0, %r1
2097 00020c4 	jr	%r31
2098 00020c8 read_and_network.2801:
2098 00020c8 	addi	%r2, %r0, 0
2099 00020cc 	sw	%r1, 0(%r30)
2100 00020d0 	addi	%r1, %r2, 0
2101 00020d4 	sw	%r31, 1(%r30)
2102 00020d8 	addi	%r30, %r30, 2
2103 00020dc 	jal	read_net_item.2797
2104 00020e0 	addi	%r30, %r30, -2
2105 00020e4 	lw	%r31, 1(%r30)
2106 00020e8 	addi	%r2, %r1, 0
2107 00020ec 	lw	%r2, 0(%r2)
2108 00020f0 	la	%r3, const_array.6367
2110 00020f8 	addi	%r26, %r0, -1
2111 00020fc 	bne	%r2, %r26, beq_else.8987
2112 0002100 	jr	%r31
2113 0002104 beq_else.8987:
2113 0002104 	lw	%r2, 0(%r30)
2114 0002108 	add	%r3, %r3, %r2
2115 000210c 	sw	%r1, 0(%r3)
2116 0002110 	addi	%r1, %r2, 1
2117 0002114 	j	read_and_network.2801
2118 0002118 read_parameter.2803:
2118 0002118 	lw	%r1, 1(%r27)
2119 000211c 	sw	%r1, 0(%r30)
2120 0002120 	sw	%r31, 1(%r30)
2121 0002124 	addi	%r30, %r30, 2
2122 0002128 	jal	read_screen_settings.2784
2123 000212c 	addi	%r30, %r30, -2
2124 0002130 	lw	%r31, 1(%r30)
2125 0002134 	sw	%r31, 1(%r30)
2126 0002138 	addi	%r30, %r30, 2
2127 000213c 	jal	read_light.2786
2128 0002140 	addi	%r30, %r30, -2
2129 0002144 	lw	%r31, 1(%r30)
2130 0002148 	sw	%r31, 1(%r30)
2131 000214c 	addi	%r30, %r30, 2
2132 0002150 	jal	read_all_object.2795
2133 0002154 	addi	%r30, %r30, -2
2134 0002158 	lw	%r31, 1(%r30)
2135 000215c 	addi	%r1, %r0, 0
2136 0002160 	sw	%r31, 1(%r30)
2137 0002164 	addi	%r30, %r30, 2
2138 0002168 	jal	read_and_network.2801
2139 000216c 	addi	%r30, %r30, -2
2140 0002170 	lw	%r31, 1(%r30)
2141 0002174 	addi	%r1, %r0, 0
2142 0002178 	sw	%r31, 1(%r30)
2143 000217c 	addi	%r30, %r30, 2
2144 0002180 	jal	read_or_network.2799
2145 0002184 	addi	%r30, %r30, -2
2146 0002188 	lw	%r31, 1(%r30)
2147 000218c 	lw	%r2, 0(%r30)
2148 0002190 	addi	%r2, %r2, 0
2149 0002194 	sw	%r1, 0(%r2)
2150 0002198 	jr	%r31
2151 000219c solver_rect_surface.2805:
2151 000219c 	add	%r6, %r2, %r3
2152 00021a0 	lw.s	%f3, 0(%r6)
2153 00021a4 	sw.s	%f2, 0(%r30)
2154 00021a8 	sw	%r5, 1(%r30)
2155 00021ac 	sw.s	%f1, 2(%r30)
2156 00021b0 	sw	%r4, 3(%r30)
2157 00021b4 	sw.s	%f0, 4(%r30)
2158 00021b8 	sw	%r3, 5(%r30)
2159 00021bc 	sw	%r2, 6(%r30)
2160 00021c0 	sw	%r1, 7(%r30)
2161 00021c4 	mov.s	%f0, %f3
2162 00021c8 	sw	%r31, 8(%r30)
2163 00021cc 	addi	%r30, %r30, 9
2164 00021d0 	jal	fiszero.2634
2165 00021d4 	addi	%r30, %r30, -9
2166 00021d8 	lw	%r31, 8(%r30)
2167 00021dc 	la	%r2, const_array.6368
2169 00021e4 	addi	%r26, %r0, 0
2170 00021e8 	bne	%r1, %r26, beq_else.8990
2171 00021ec 	lw	%r1, 7(%r30)
2172 00021f0 	sw	%r2, 8(%r30)
2173 00021f4 	sw	%r31, 9(%r30)
2174 00021f8 	addi	%r30, %r30, 10
2175 00021fc 	jal	o_param_abc.2727
2176 0002200 	addi	%r30, %r30, -10
2177 0002204 	lw	%r31, 9(%r30)
2178 0002208 	lw	%r2, 7(%r30)
2179 000220c 	sw	%r1, 9(%r30)
2180 0002210 	addi	%r1, %r2, 0
2181 0002214 	sw	%r31, 10(%r30)
2182 0002218 	addi	%r30, %r30, 11
2183 000221c 	jal	o_isinvert.2717
2184 0002220 	addi	%r30, %r30, -11
2185 0002224 	lw	%r31, 10(%r30)
2186 0002228 	lw	%r2, 5(%r30)
2187 000222c 	lw	%r3, 6(%r30)
2188 0002230 	add	%r4, %r3, %r2
2189 0002234 	lw.s	%f0, 0(%r4)
2190 0002238 	sw	%r1, 10(%r30)
2191 000223c 	sw	%r31, 11(%r30)
2192 0002240 	addi	%r30, %r30, 12
2193 0002244 	jal	fisneg.2632
2194 0002248 	addi	%r30, %r30, -12
2195 000224c 	lw	%r31, 11(%r30)
2196 0002250 	addi	%r2, %r1, 0
2197 0002254 	lw	%r1, 10(%r30)
2198 0002258 	sw	%r31, 11(%r30)
2199 000225c 	addi	%r30, %r30, 12
2200 0002260 	jal	xor.2654
2201 0002264 	addi	%r30, %r30, -12
2202 0002268 	lw	%r31, 11(%r30)
2203 000226c 	lw	%r2, 5(%r30)
2204 0002270 	lw	%r3, 9(%r30)
2205 0002274 	add	%r4, %r3, %r2
2206 0002278 	lw.s	%f0, 0(%r4)
2207 000227c 	sw	%r31, 11(%r30)
2208 0002280 	addi	%r30, %r30, 12
2209 0002284 	jal	fneg_cond.2659
2210 0002288 	addi	%r30, %r30, -12
2211 000228c 	lw	%r31, 11(%r30)
2212 0002290 	lw.s	%f1, 4(%r30)
2213 0002294 	sub.s	%f0, %f0, %f1
2214 0002298 	lw	%r1, 5(%r30)
2215 000229c 	lw	%r2, 6(%r30)
2216 00022a0 	add	%r1, %r2, %r1
2217 00022a4 	lw.s	%f1, 0(%r1)
2218 00022a8 	div.s	%f0, %f0, %f1
2219 00022ac 	lw	%r1, 3(%r30)
2220 00022b0 	add	%r3, %r2, %r1
2221 00022b4 	lw.s	%f1, 0(%r3)
2222 00022b8 	mul.s	%f1, %f0, %f1
2223 00022bc 	lw.s	%f2, 2(%r30)
2224 00022c0 	add.s	%f1, %f1, %f2
2225 00022c4 	abs.s	%f1, %f1
2226 00022c8 	lw	%r3, 9(%r30)
2227 00022cc 	add	%r1, %r3, %r1
2228 00022d0 	lw.s	%f2, 0(%r1)
2229 00022d4 	sw.s	%f0, 11(%r30)
2230 00022d8 	mov.s	%f0, %f1
2231 00022dc 	mov.s	%f1, %f2
2232 00022e0 	sw	%r31, 12(%r30)
2233 00022e4 	addi	%r30, %r30, 13
2234 00022e8 	jal	fless.2627
2235 00022ec 	addi	%r30, %r30, -13
2236 00022f0 	lw	%r31, 12(%r30)
2237 00022f4 	addi	%r26, %r0, 0
2238 00022f8 	bne	%r1, %r26, beq_else.8991
2239 00022fc 	addi	%r1, %r0, 0
2240 0002300 	jr	%r31
2241 0002304 beq_else.8991:
2241 0002304 	lw	%r1, 1(%r30)
2242 0002308 	lw	%r2, 6(%r30)
2243 000230c 	add	%r2, %r2, %r1
2244 0002310 	lw.s	%f0, 0(%r2)
2245 0002314 	lw.s	%f1, 11(%r30)
2246 0002318 	mul.s	%f0, %f1, %f0
2247 000231c 	lw.s	%f2, 0(%r30)
2248 0002320 	add.s	%f0, %f0, %f2
2249 0002324 	abs.s	%f0, %f0
2250 0002328 	lw	%r2, 9(%r30)
2251 000232c 	add	%r1, %r2, %r1
2252 0002330 	lw.s	%f2, 0(%r1)
2253 0002334 	mov.s	%f1, %f2
2254 0002338 	sw	%r31, 12(%r30)
2255 000233c 	addi	%r30, %r30, 13
2256 0002340 	jal	fless.2627
2257 0002344 	addi	%r30, %r30, -13
2258 0002348 	lw	%r31, 12(%r30)
2259 000234c 	addi	%r26, %r0, 0
2260 0002350 	bne	%r1, %r26, beq_else.8992
2261 0002354 	addi	%r1, %r0, 0
2262 0002358 	jr	%r31
2263 000235c beq_else.8992:
2263 000235c 	lw	%r1, 8(%r30)
2264 0002360 	addi	%r1, %r1, 0
2265 0002364 	lw.s	%f0, 11(%r30)
2266 0002368 	sw.s	%f0, 0(%r1)
2267 000236c 	addi	%r1, %r0, 1
2268 0002370 	jr	%r31
2269 0002374 beq_else.8990:
2269 0002374 	addi	%r1, %r0, 0
2270 0002378 	jr	%r31
2271 000237c solver_rect.2814:
2271 000237c 	addi	%r3, %r0, 0
2272 0002380 	addi	%r4, %r0, 1
2273 0002384 	addi	%r5, %r0, 2
2274 0002388 	sw.s	%f0, 0(%r30)
2275 000238c 	sw.s	%f2, 1(%r30)
2276 0002390 	sw.s	%f1, 2(%r30)
2277 0002394 	sw	%r2, 3(%r30)
2278 0002398 	sw	%r1, 4(%r30)
2279 000239c 	sw	%r31, 5(%r30)
2280 00023a0 	addi	%r30, %r30, 6
2281 00023a4 	jal	solver_rect_surface.2805
2282 00023a8 	addi	%r30, %r30, -6
2283 00023ac 	lw	%r31, 5(%r30)
2284 00023b0 	addi	%r26, %r0, 0
2285 00023b4 	bne	%r1, %r26, beq_else.8993
2286 00023b8 	addi	%r3, %r0, 1
2287 00023bc 	addi	%r4, %r0, 2
2288 00023c0 	addi	%r5, %r0, 0
2289 00023c4 	lw.s	%f0, 2(%r30)
2290 00023c8 	lw.s	%f1, 1(%r30)
2291 00023cc 	lw.s	%f2, 0(%r30)
2292 00023d0 	lw	%r1, 4(%r30)
2293 00023d4 	lw	%r2, 3(%r30)
2294 00023d8 	sw	%r31, 5(%r30)
2295 00023dc 	addi	%r30, %r30, 6
2296 00023e0 	jal	solver_rect_surface.2805
2297 00023e4 	addi	%r30, %r30, -6
2298 00023e8 	lw	%r31, 5(%r30)
2299 00023ec 	addi	%r26, %r0, 0
2300 00023f0 	bne	%r1, %r26, beq_else.8994
2301 00023f4 	addi	%r3, %r0, 2
2302 00023f8 	addi	%r4, %r0, 0
2303 00023fc 	addi	%r5, %r0, 1
2304 0002400 	lw.s	%f0, 1(%r30)
2305 0002404 	lw.s	%f1, 0(%r30)
2306 0002408 	lw.s	%f2, 2(%r30)
2307 000240c 	lw	%r1, 4(%r30)
2308 0002410 	lw	%r2, 3(%r30)
2309 0002414 	sw	%r31, 5(%r30)
2310 0002418 	addi	%r30, %r30, 6
2311 000241c 	jal	solver_rect_surface.2805
2312 0002420 	addi	%r30, %r30, -6
2313 0002424 	lw	%r31, 5(%r30)
2314 0002428 	addi	%r26, %r0, 0
2315 000242c 	bne	%r1, %r26, beq_else.8995
2316 0002430 	addi	%r1, %r0, 0
2317 0002434 	jr	%r31
2318 0002438 beq_else.8995:
2318 0002438 	addi	%r1, %r0, 3
2319 000243c 	jr	%r31
2320 0002440 beq_else.8994:
2320 0002440 	addi	%r1, %r0, 2
2321 0002444 	jr	%r31
2322 0002448 beq_else.8993:
2322 0002448 	addi	%r1, %r0, 1
2323 000244c 	jr	%r31
2324 0002450 solver_surface.2820:
2324 0002450 	sw.s	%f2, 0(%r30)
2325 0002454 	sw.s	%f1, 1(%r30)
2326 0002458 	sw.s	%f0, 2(%r30)
2327 000245c 	sw	%r2, 3(%r30)
2328 0002460 	sw	%r31, 4(%r30)
2329 0002464 	addi	%r30, %r30, 5
2330 0002468 	jal	o_param_abc.2727
2331 000246c 	addi	%r30, %r30, -5
2332 0002470 	lw	%r31, 4(%r30)
2333 0002474 	addi	%r2, %r1, 0
2334 0002478 	lw	%r1, 3(%r30)
2335 000247c 	sw	%r2, 4(%r30)
2336 0002480 	sw	%r31, 5(%r30)
2337 0002484 	addi	%r30, %r30, 6
2338 0002488 	jal	veciprod.2686
2339 000248c 	addi	%r30, %r30, -6
2340 0002490 	lw	%r31, 5(%r30)
2341 0002494 	sw.s	%f0, 5(%r30)
2342 0002498 	sw	%r31, 6(%r30)
2343 000249c 	addi	%r30, %r30, 7
2344 00024a0 	jal	fispos.2630
2345 00024a4 	addi	%r30, %r30, -7
2346 00024a8 	lw	%r31, 6(%r30)
2347 00024ac 	la	%r2, const_array.6368
2349 00024b4 	addi	%r26, %r0, 0
2350 00024b8 	bne	%r1, %r26, beq_else.8996
2351 00024bc 	addi	%r1, %r0, 0
2352 00024c0 	jr	%r31
2353 00024c4 beq_else.8996:
2353 00024c4 	lw.s	%f0, 2(%r30)
2354 00024c8 	lw.s	%f1, 1(%r30)
2355 00024cc 	lw.s	%f2, 0(%r30)
2356 00024d0 	lw	%r1, 4(%r30)
2357 00024d4 	sw	%r2, 6(%r30)
2358 00024d8 	sw	%r31, 7(%r30)
2359 00024dc 	addi	%r30, %r30, 8
2360 00024e0 	jal	veciprod2.2689
2361 00024e4 	addi	%r30, %r30, -8
2362 00024e8 	lw	%r31, 7(%r30)
2363 00024ec 	sw	%r31, 7(%r30)
2364 00024f0 	addi	%r30, %r30, 8
2365 00024f4 	jal	min_caml_fneg
2366 00024f8 	addi	%r30, %r30, -8
2367 00024fc 	lw	%r31, 7(%r30)
2368 0002500 	lw.s	%f1, 5(%r30)
2369 0002504 	div.s	%f0, %f0, %f1
2370 0002508 	lw	%r1, 6(%r30)
2371 000250c 	addi	%r1, %r1, 0
2372 0002510 	sw.s	%f0, 0(%r1)
2373 0002514 	addi	%r1, %r0, 1
2374 0002518 	jr	%r31
2375 000251c quadratic.2826:
2375 000251c 	sw.s	%f0, 0(%r30)
2376 0002520 	sw.s	%f2, 1(%r30)
2377 0002524 	sw	%r1, 2(%r30)
2378 0002528 	sw.s	%f1, 3(%r30)
2379 000252c 	sw	%r31, 4(%r30)
2380 0002530 	addi	%r30, %r30, 5
2381 0002534 	jal	fsqr.2638
2382 0002538 	addi	%r30, %r30, -5
2383 000253c 	lw	%r31, 4(%r30)
2384 0002540 	lw	%r1, 2(%r30)
2385 0002544 	sw.s	%f0, 4(%r30)
2386 0002548 	sw	%r31, 5(%r30)
2387 000254c 	addi	%r30, %r30, 6
2388 0002550 	jal	o_param_a.2721
2389 0002554 	addi	%r30, %r30, -6
2390 0002558 	lw	%r31, 5(%r30)
2391 000255c 	lw.s	%f1, 4(%r30)
2392 0002560 	mul.s	%f0, %f1, %f0
2393 0002564 	lw.s	%f1, 3(%r30)
2394 0002568 	sw.s	%f0, 5(%r30)
2395 000256c 	mov.s	%f0, %f1
2396 0002570 	sw	%r31, 6(%r30)
2397 0002574 	addi	%r30, %r30, 7
2398 0002578 	jal	fsqr.2638
2399 000257c 	addi	%r30, %r30, -7
2400 0002580 	lw	%r31, 6(%r30)
2401 0002584 	lw	%r1, 2(%r30)
2402 0002588 	sw.s	%f0, 6(%r30)
2403 000258c 	sw	%r31, 7(%r30)
2404 0002590 	addi	%r30, %r30, 8
2405 0002594 	jal	o_param_b.2723
2406 0002598 	addi	%r30, %r30, -8
2407 000259c 	lw	%r31, 7(%r30)
2408 00025a0 	lw.s	%f1, 6(%r30)
2409 00025a4 	mul.s	%f0, %f1, %f0
2410 00025a8 	lw.s	%f1, 5(%r30)
2411 00025ac 	add.s	%f0, %f1, %f0
2412 00025b0 	lw.s	%f1, 1(%r30)
2413 00025b4 	sw.s	%f0, 7(%r30)
2414 00025b8 	mov.s	%f0, %f1
2415 00025bc 	sw	%r31, 8(%r30)
2416 00025c0 	addi	%r30, %r30, 9
2417 00025c4 	jal	fsqr.2638
2418 00025c8 	addi	%r30, %r30, -9
2419 00025cc 	lw	%r31, 8(%r30)
2420 00025d0 	lw	%r1, 2(%r30)
2421 00025d4 	sw.s	%f0, 8(%r30)
2422 00025d8 	sw	%r31, 9(%r30)
2423 00025dc 	addi	%r30, %r30, 10
2424 00025e0 	jal	o_param_c.2725
2425 00025e4 	addi	%r30, %r30, -10
2426 00025e8 	lw	%r31, 9(%r30)
2427 00025ec 	lw.s	%f1, 8(%r30)
2428 00025f0 	mul.s	%f0, %f1, %f0
2429 00025f4 	lw.s	%f1, 7(%r30)
2430 00025f8 	add.s	%f0, %f1, %f0
2431 00025fc 	lw	%r1, 2(%r30)
2432 0002600 	sw.s	%f0, 9(%r30)
2433 0002604 	sw	%r31, 10(%r30)
2434 0002608 	addi	%r30, %r30, 11
2435 000260c 	jal	o_isrot.2719
2436 0002610 	addi	%r30, %r30, -11
2437 0002614 	lw	%r31, 10(%r30)
2438 0002618 	addi	%r26, %r0, 0
2439 000261c 	bne	%r1, %r26, beq_else.8997
2440 0002620 	lw.s	%f0, 9(%r30)
2441 0002624 	mov.s	%f0, %f0
2442 0002628 	jr	%r31
2443 000262c beq_else.8997:
2443 000262c 	lw.s	%f0, 1(%r30)
2444 0002630 	lw.s	%f1, 3(%r30)
2445 0002634 	mul.s	%f2, %f1, %f0
2446 0002638 	lw	%r1, 2(%r30)
2447 000263c 	sw.s	%f2, 10(%r30)
2448 0002640 	sw	%r31, 11(%r30)
2449 0002644 	addi	%r30, %r30, 12
2450 0002648 	jal	o_param_r1.2745
2451 000264c 	addi	%r30, %r30, -12
2452 0002650 	lw	%r31, 11(%r30)
2453 0002654 	lw.s	%f1, 10(%r30)
2454 0002658 	mul.s	%f0, %f1, %f0
2455 000265c 	lw.s	%f1, 9(%r30)
2456 0002660 	add.s	%f0, %f1, %f0
2457 0002664 	lw.s	%f1, 0(%r30)
2458 0002668 	lw.s	%f2, 1(%r30)
2459 000266c 	mul.s	%f2, %f2, %f1
2460 0002670 	lw	%r1, 2(%r30)
2461 0002674 	sw.s	%f0, 11(%r30)
2462 0002678 	sw.s	%f2, 12(%r30)
2463 000267c 	sw	%r31, 13(%r30)
2464 0002680 	addi	%r30, %r30, 14
2465 0002684 	jal	o_param_r2.2747
2466 0002688 	addi	%r30, %r30, -14
2467 000268c 	lw	%r31, 13(%r30)
2468 0002690 	lw.s	%f1, 12(%r30)
2469 0002694 	mul.s	%f0, %f1, %f0
2470 0002698 	lw.s	%f1, 11(%r30)
2471 000269c 	add.s	%f0, %f1, %f0
2472 00026a0 	lw.s	%f1, 3(%r30)
2473 00026a4 	lw.s	%f2, 0(%r30)
2474 00026a8 	mul.s	%f1, %f2, %f1
2475 00026ac 	lw	%r1, 2(%r30)
2476 00026b0 	sw.s	%f0, 13(%r30)
2477 00026b4 	sw.s	%f1, 14(%r30)
2478 00026b8 	sw	%r31, 15(%r30)
2479 00026bc 	addi	%r30, %r30, 16
2480 00026c0 	jal	o_param_r3.2749
2481 00026c4 	addi	%r30, %r30, -16
2482 00026c8 	lw	%r31, 15(%r30)
2483 00026cc 	lw.s	%f1, 14(%r30)
2484 00026d0 	mul.s	%f0, %f1, %f0
2485 00026d4 	lw.s	%f1, 13(%r30)
2486 00026d8 	add.s	%f0, %f1, %f0
2487 00026dc 	jr	%r31
2488 00026e0 bilinear.2831:
2488 00026e0 	mul.s	%f6, %f0, %f3
2489 00026e4 	sw.s	%f3, 0(%r30)
2490 00026e8 	sw.s	%f0, 1(%r30)
2491 00026ec 	sw.s	%f5, 2(%r30)
2492 00026f0 	sw.s	%f2, 3(%r30)
2493 00026f4 	sw	%r1, 4(%r30)
2494 00026f8 	sw.s	%f4, 5(%r30)
2495 00026fc 	sw.s	%f1, 6(%r30)
2496 0002700 	sw.s	%f6, 7(%r30)
2497 0002704 	sw	%r31, 8(%r30)
2498 0002708 	addi	%r30, %r30, 9
2499 000270c 	jal	o_param_a.2721
2500 0002710 	addi	%r30, %r30, -9
2501 0002714 	lw	%r31, 8(%r30)
2502 0002718 	lw.s	%f1, 7(%r30)
2503 000271c 	mul.s	%f0, %f1, %f0
2504 0002720 	lw.s	%f1, 5(%r30)
2505 0002724 	lw.s	%f2, 6(%r30)
2506 0002728 	mul.s	%f3, %f2, %f1
2507 000272c 	lw	%r1, 4(%r30)
2508 0002730 	sw.s	%f0, 8(%r30)
2509 0002734 	sw.s	%f3, 9(%r30)
2510 0002738 	sw	%r31, 10(%r30)
2511 000273c 	addi	%r30, %r30, 11
2512 0002740 	jal	o_param_b.2723
2513 0002744 	addi	%r30, %r30, -11
2514 0002748 	lw	%r31, 10(%r30)
2515 000274c 	lw.s	%f1, 9(%r30)
2516 0002750 	mul.s	%f0, %f1, %f0
2517 0002754 	lw.s	%f1, 8(%r30)
2518 0002758 	add.s	%f0, %f1, %f0
2519 000275c 	lw.s	%f1, 2(%r30)
2520 0002760 	lw.s	%f2, 3(%r30)
2521 0002764 	mul.s	%f3, %f2, %f1
2522 0002768 	lw	%r1, 4(%r30)
2523 000276c 	sw.s	%f0, 10(%r30)
2524 0002770 	sw.s	%f3, 11(%r30)
2525 0002774 	sw	%r31, 12(%r30)
2526 0002778 	addi	%r30, %r30, 13
2527 000277c 	jal	o_param_c.2725
2528 0002780 	addi	%r30, %r30, -13
2529 0002784 	lw	%r31, 12(%r30)
2530 0002788 	lw.s	%f1, 11(%r30)
2531 000278c 	mul.s	%f0, %f1, %f0
2532 0002790 	lw.s	%f1, 10(%r30)
2533 0002794 	add.s	%f0, %f1, %f0
2534 0002798 	lw	%r1, 4(%r30)
2535 000279c 	sw.s	%f0, 12(%r30)
2536 00027a0 	sw	%r31, 13(%r30)
2537 00027a4 	addi	%r30, %r30, 14
2538 00027a8 	jal	o_isrot.2719
2539 00027ac 	addi	%r30, %r30, -14
2540 00027b0 	lw	%r31, 13(%r30)
2541 00027b4 	addi	%r26, %r0, 0
2542 00027b8 	bne	%r1, %r26, beq_else.8998
2543 00027bc 	lw.s	%f0, 12(%r30)
2544 00027c0 	mov.s	%f0, %f0
2545 00027c4 	jr	%r31
2546 00027c8 beq_else.8998:
2546 00027c8 	lw.s	%f0, 5(%r30)
2547 00027cc 	lw.s	%f1, 3(%r30)
2548 00027d0 	mul.s	%f2, %f1, %f0
2549 00027d4 	lw.s	%f3, 2(%r30)
2550 00027d8 	lw.s	%f4, 6(%r30)
2551 00027dc 	mul.s	%f5, %f4, %f3
2552 00027e0 	add.s	%f2, %f2, %f5
2553 00027e4 	lw	%r1, 4(%r30)
2554 00027e8 	sw.s	%f2, 13(%r30)
2555 00027ec 	sw	%r31, 14(%r30)
2556 00027f0 	addi	%r30, %r30, 15
2557 00027f4 	jal	o_param_r1.2745
2558 00027f8 	addi	%r30, %r30, -15
2559 00027fc 	lw	%r31, 14(%r30)
2560 0002800 	lw.s	%f1, 13(%r30)
2561 0002804 	mul.s	%f0, %f1, %f0
2562 0002808 	lw.s	%f1, 2(%r30)
2563 000280c 	lw.s	%f2, 1(%r30)
2564 0002810 	mul.s	%f1, %f2, %f1
2565 0002814 	lw.s	%f3, 0(%r30)
2566 0002818 	lw.s	%f4, 3(%r30)
2567 000281c 	mul.s	%f4, %f4, %f3
2568 0002820 	add.s	%f1, %f1, %f4
2569 0002824 	lw	%r1, 4(%r30)
2570 0002828 	sw.s	%f0, 14(%r30)
2571 000282c 	sw.s	%f1, 15(%r30)
2572 0002830 	sw	%r31, 16(%r30)
2573 0002834 	addi	%r30, %r30, 17
2574 0002838 	jal	o_param_r2.2747
2575 000283c 	addi	%r30, %r30, -17
2576 0002840 	lw	%r31, 16(%r30)
2577 0002844 	lw.s	%f1, 15(%r30)
2578 0002848 	mul.s	%f0, %f1, %f0
2579 000284c 	lw.s	%f1, 14(%r30)
2580 0002850 	add.s	%f0, %f1, %f0
2581 0002854 	lw.s	%f1, 5(%r30)
2582 0002858 	lw.s	%f2, 1(%r30)
2583 000285c 	mul.s	%f1, %f2, %f1
2584 0002860 	lw.s	%f2, 0(%r30)
2585 0002864 	lw.s	%f3, 6(%r30)
2586 0002868 	mul.s	%f2, %f3, %f2
2587 000286c 	add.s	%f1, %f1, %f2
2588 0002870 	lw	%r1, 4(%r30)
2589 0002874 	sw.s	%f0, 16(%r30)
2590 0002878 	sw.s	%f1, 17(%r30)
2591 000287c 	sw	%r31, 18(%r30)
2592 0002880 	addi	%r30, %r30, 19
2593 0002884 	jal	o_param_r3.2749
2594 0002888 	addi	%r30, %r30, -19
2595 000288c 	lw	%r31, 18(%r30)
2596 0002890 	lw.s	%f1, 17(%r30)
2597 0002894 	mul.s	%f0, %f1, %f0
2598 0002898 	lw.s	%f1, 16(%r30)
2599 000289c 	add.s	%f0, %f1, %f0
2600 00028a0 	sw	%r31, 18(%r30)
2601 00028a4 	addi	%r30, %r30, 19
2602 00028a8 	jal	fhalf.2636
2603 00028ac 	addi	%r30, %r30, -19
2604 00028b0 	lw	%r31, 18(%r30)
2605 00028b4 	lw.s	%f1, 12(%r30)
2606 00028b8 	add.s	%f0, %f1, %f0
2607 00028bc 	jr	%r31
2608 00028c0 solver_second.2839:
2608 00028c0 	addi	%r3, %r2, 0
2609 00028c4 	lw.s	%f3, 0(%r3)
2610 00028c8 	addi	%r3, %r2, 1
2611 00028cc 	lw.s	%f4, 0(%r3)
2612 00028d0 	addi	%r3, %r2, 2
2613 00028d4 	lw.s	%f5, 0(%r3)
2614 00028d8 	sw.s	%f2, 0(%r30)
2615 00028dc 	sw.s	%f1, 1(%r30)
2616 00028e0 	sw.s	%f0, 2(%r30)
2617 00028e4 	sw	%r1, 3(%r30)
2618 00028e8 	sw	%r2, 4(%r30)
2619 00028ec 	mov.s	%f2, %f5
2620 00028f0 	mov.s	%f1, %f4
2621 00028f4 	mov.s	%f0, %f3
2622 00028f8 	sw	%r31, 5(%r30)
2623 00028fc 	addi	%r30, %r30, 6
2624 0002900 	jal	quadratic.2826
2625 0002904 	addi	%r30, %r30, -6
2626 0002908 	lw	%r31, 5(%r30)
2627 000290c 	sw.s	%f0, 5(%r30)
2628 0002910 	sw	%r31, 6(%r30)
2629 0002914 	addi	%r30, %r30, 7
2630 0002918 	jal	fiszero.2634
2631 000291c 	addi	%r30, %r30, -7
2632 0002920 	lw	%r31, 6(%r30)
2633 0002924 	la	%r2, const_array.6368
2635 000292c 	addi	%r26, %r0, 0
2636 0002930 	bne	%r1, %r26, beq_else.8999
2637 0002934 	lw	%r1, 4(%r30)
2638 0002938 	addi	%r3, %r1, 0
2639 000293c 	lw.s	%f0, 0(%r3)
2640 0002940 	addi	%r3, %r1, 1
2641 0002944 	lw.s	%f1, 0(%r3)
2642 0002948 	addi	%r1, %r1, 2
2643 000294c 	lw.s	%f2, 0(%r1)
2644 0002950 	lw.s	%f3, 2(%r30)
2645 0002954 	lw.s	%f4, 1(%r30)
2646 0002958 	lw.s	%f5, 0(%r30)
2647 000295c 	lw	%r1, 3(%r30)
2648 0002960 	sw	%r2, 6(%r30)
2649 0002964 	sw	%r31, 7(%r30)
2650 0002968 	addi	%r30, %r30, 8
2651 000296c 	jal	bilinear.2831
2652 0002970 	addi	%r30, %r30, -8
2653 0002974 	lw	%r31, 7(%r30)
2654 0002978 	lw.s	%f1, 2(%r30)
2655 000297c 	lw.s	%f2, 1(%r30)
2656 0002980 	lw.s	%f3, 0(%r30)
2657 0002984 	lw	%r1, 3(%r30)
2658 0002988 	sw.s	%f0, 7(%r30)
2659 000298c 	mov.s	%f0, %f1
2660 0002990 	mov.s	%f1, %f2
2661 0002994 	mov.s	%f2, %f3
2662 0002998 	sw	%r31, 8(%r30)
2663 000299c 	addi	%r30, %r30, 9
2664 00029a0 	jal	quadratic.2826
2665 00029a4 	addi	%r30, %r30, -9
2666 00029a8 	lw	%r31, 8(%r30)
2667 00029ac 	lw	%r1, 3(%r30)
2668 00029b0 	sw.s	%f0, 8(%r30)
2669 00029b4 	sw	%r31, 9(%r30)
2670 00029b8 	addi	%r30, %r30, 10
2671 00029bc 	jal	o_form.2713
2672 00029c0 	addi	%r30, %r30, -10
2673 00029c4 	lw	%r31, 9(%r30)
2674 00029c8 	addi	%r26, %r0, 3
2675 00029cc 	bne	%r1, %r26, beq_else.9000
2676 00029d0 	la	%r1, l.6407
2678 00029d8 	lw.s	%f0, 0(%r1)
2679 00029dc 	lw.s	%f1, 8(%r30)
2680 00029e0 	sub.s	%f0, %f1, %f0
2681 00029e4 	j	beq_cont.9001
2682 00029e8 beq_else.9000:
2682 00029e8 	lw.s	%f0, 8(%r30)
2683 00029ec 	mov.s	%f0, %f0
2684 00029f0 beq_cont.9001:
2684 00029f0 	lw.s	%f1, 7(%r30)
2685 00029f4 	sw.s	%f0, 9(%r30)
2686 00029f8 	mov.s	%f0, %f1
2687 00029fc 	sw	%r31, 10(%r30)
2688 0002a00 	addi	%r30, %r30, 11
2689 0002a04 	jal	fsqr.2638
2690 0002a08 	addi	%r30, %r30, -11
2691 0002a0c 	lw	%r31, 10(%r30)
2692 0002a10 	lw.s	%f1, 9(%r30)
2693 0002a14 	lw.s	%f2, 5(%r30)
2694 0002a18 	mul.s	%f1, %f2, %f1
2695 0002a1c 	sub.s	%f0, %f0, %f1
2696 0002a20 	sw.s	%f0, 10(%r30)
2697 0002a24 	sw	%r31, 11(%r30)
2698 0002a28 	addi	%r30, %r30, 12
2699 0002a2c 	jal	fispos.2630
2700 0002a30 	addi	%r30, %r30, -12
2701 0002a34 	lw	%r31, 11(%r30)
2702 0002a38 	addi	%r26, %r0, 0
2703 0002a3c 	bne	%r1, %r26, beq_else.9002
2704 0002a40 	addi	%r1, %r0, 0
2705 0002a44 	jr	%r31
2706 0002a48 beq_else.9002:
2706 0002a48 	lw.s	%f0, 10(%r30)
2707 0002a4c 	sqrt.s	%f0, %f0
2708 0002a50 	lw	%r1, 3(%r30)
2709 0002a54 	sw.s	%f0, 11(%r30)
2710 0002a58 	sw	%r31, 12(%r30)
2711 0002a5c 	addi	%r30, %r30, 13
2712 0002a60 	jal	o_isinvert.2717
2713 0002a64 	addi	%r30, %r30, -13
2714 0002a68 	lw	%r31, 12(%r30)
2715 0002a6c 	addi	%r26, %r0, 0
2716 0002a70 	bne	%r1, %r26, beq_else.9003
2717 0002a74 	lw.s	%f0, 11(%r30)
2718 0002a78 	sw	%r31, 12(%r30)
2719 0002a7c 	addi	%r30, %r30, 13
2720 0002a80 	jal	min_caml_fneg
2721 0002a84 	addi	%r30, %r30, -13
2722 0002a88 	lw	%r31, 12(%r30)
2723 0002a8c 	j	beq_cont.9004
2724 0002a90 beq_else.9003:
2724 0002a90 	lw.s	%f0, 11(%r30)
2725 0002a94 	mov.s	%f0, %f0
2726 0002a98 beq_cont.9004:
2726 0002a98 	lw.s	%f1, 7(%r30)
2727 0002a9c 	sub.s	%f0, %f0, %f1
2728 0002aa0 	lw.s	%f1, 5(%r30)
2729 0002aa4 	div.s	%f0, %f0, %f1
2730 0002aa8 	lw	%r1, 6(%r30)
2731 0002aac 	addi	%r1, %r1, 0
2732 0002ab0 	sw.s	%f0, 0(%r1)
2733 0002ab4 	addi	%r1, %r0, 1
2734 0002ab8 	jr	%r31
2735 0002abc beq_else.8999:
2735 0002abc 	addi	%r1, %r0, 0
2736 0002ac0 	jr	%r31
2737 0002ac4 solver.2845:
2737 0002ac4 	la	%r4, const_array.6361
2739 0002acc 	add	%r1, %r4, %r1
2740 0002ad0 	lw	%r1, 0(%r1)
2741 0002ad4 	addi	%r4, %r3, 0
2742 0002ad8 	lw.s	%f0, 0(%r4)
2743 0002adc 	sw	%r2, 0(%r30)
2744 0002ae0 	sw	%r1, 1(%r30)
2745 0002ae4 	sw	%r3, 2(%r30)
2746 0002ae8 	sw.s	%f0, 3(%r30)
2747 0002aec 	sw	%r31, 4(%r30)
2748 0002af0 	addi	%r30, %r30, 5
2749 0002af4 	jal	o_param_x.2729
2750 0002af8 	addi	%r30, %r30, -5
2751 0002afc 	lw	%r31, 4(%r30)
2752 0002b00 	lw.s	%f1, 3(%r30)
2753 0002b04 	sub.s	%f0, %f1, %f0
2754 0002b08 	lw	%r1, 2(%r30)
2755 0002b0c 	addi	%r2, %r1, 1
2756 0002b10 	lw.s	%f1, 0(%r2)
2757 0002b14 	lw	%r2, 1(%r30)
2758 0002b18 	sw.s	%f0, 4(%r30)
2759 0002b1c 	sw.s	%f1, 5(%r30)
2760 0002b20 	addi	%r1, %r2, 0
2761 0002b24 	sw	%r31, 6(%r30)
2762 0002b28 	addi	%r30, %r30, 7
2763 0002b2c 	jal	o_param_y.2731
2764 0002b30 	addi	%r30, %r30, -7
2765 0002b34 	lw	%r31, 6(%r30)
2766 0002b38 	lw.s	%f1, 5(%r30)
2767 0002b3c 	sub.s	%f0, %f1, %f0
2768 0002b40 	lw	%r1, 2(%r30)
2769 0002b44 	addi	%r1, %r1, 2
2770 0002b48 	lw.s	%f1, 0(%r1)
2771 0002b4c 	lw	%r1, 1(%r30)
2772 0002b50 	sw.s	%f0, 6(%r30)
2773 0002b54 	sw.s	%f1, 7(%r30)
2774 0002b58 	sw	%r31, 8(%r30)
2775 0002b5c 	addi	%r30, %r30, 9
2776 0002b60 	jal	o_param_z.2733
2777 0002b64 	addi	%r30, %r30, -9
2778 0002b68 	lw	%r31, 8(%r30)
2779 0002b6c 	lw.s	%f1, 7(%r30)
2780 0002b70 	sub.s	%f0, %f1, %f0
2781 0002b74 	lw	%r1, 1(%r30)
2782 0002b78 	sw.s	%f0, 8(%r30)
2783 0002b7c 	sw	%r31, 9(%r30)
2784 0002b80 	addi	%r30, %r30, 10
2785 0002b84 	jal	o_form.2713
2786 0002b88 	addi	%r30, %r30, -10
2787 0002b8c 	lw	%r31, 9(%r30)
2788 0002b90 	addi	%r26, %r0, 1
2789 0002b94 	bne	%r1, %r26, beq_else.9005
2790 0002b98 	lw.s	%f0, 4(%r30)
2791 0002b9c 	lw.s	%f1, 6(%r30)
2792 0002ba0 	lw.s	%f2, 8(%r30)
2793 0002ba4 	lw	%r1, 1(%r30)
2794 0002ba8 	lw	%r2, 0(%r30)
2795 0002bac 	j	solver_rect.2814
2796 0002bb0 beq_else.9005:
2796 0002bb0 	addi	%r26, %r0, 2
2797 0002bb4 	bne	%r1, %r26, beq_else.9006
2798 0002bb8 	lw.s	%f0, 4(%r30)
2799 0002bbc 	lw.s	%f1, 6(%r30)
2800 0002bc0 	lw.s	%f2, 8(%r30)
2801 0002bc4 	lw	%r1, 1(%r30)
2802 0002bc8 	lw	%r2, 0(%r30)
2803 0002bcc 	j	solver_surface.2820
2804 0002bd0 beq_else.9006:
2804 0002bd0 	lw.s	%f0, 4(%r30)
2805 0002bd4 	lw.s	%f1, 6(%r30)
2806 0002bd8 	lw.s	%f2, 8(%r30)
2807 0002bdc 	lw	%r1, 1(%r30)
2808 0002be0 	lw	%r2, 0(%r30)
2809 0002be4 	j	solver_second.2839
2810 0002be8 solver_rect_fast.2849:
2810 0002be8 	addi	%r4, %r3, 0
2811 0002bec 	lw.s	%f3, 0(%r4)
2812 0002bf0 	sub.s	%f3, %f3, %f0
2813 0002bf4 	addi	%r4, %r3, 1
2814 0002bf8 	lw.s	%f4, 0(%r4)
2815 0002bfc 	mul.s	%f3, %f3, %f4
2816 0002c00 	addi	%r4, %r2, 1
2817 0002c04 	lw.s	%f4, 0(%r4)
2818 0002c08 	mul.s	%f4, %f3, %f4
2819 0002c0c 	add.s	%f4, %f4, %f1
2820 0002c10 	abs.s	%f4, %f4
2821 0002c14 	sw.s	%f0, 0(%r30)
2822 0002c18 	sw.s	%f1, 1(%r30)
2823 0002c1c 	sw	%r3, 2(%r30)
2824 0002c20 	sw	%r1, 3(%r30)
2825 0002c24 	sw.s	%f2, 4(%r30)
2826 0002c28 	sw.s	%f3, 5(%r30)
2827 0002c2c 	sw	%r2, 6(%r30)
2828 0002c30 	sw.s	%f4, 7(%r30)
2829 0002c34 	sw	%r31, 8(%r30)
2830 0002c38 	addi	%r30, %r30, 9
2831 0002c3c 	jal	o_param_b.2723
2832 0002c40 	addi	%r30, %r30, -9
2833 0002c44 	lw	%r31, 8(%r30)
2834 0002c48 	mov.s	%f1, %f0
2835 0002c4c 	lw.s	%f0, 7(%r30)
2836 0002c50 	sw	%r31, 8(%r30)
2837 0002c54 	addi	%r30, %r30, 9
2838 0002c58 	jal	fless.2627
2839 0002c5c 	addi	%r30, %r30, -9
2840 0002c60 	lw	%r31, 8(%r30)
2841 0002c64 	addi	%r26, %r0, 0
2842 0002c68 	bne	%r1, %r26, beq_else.9007
2843 0002c6c 	addi	%r1, %r0, 0
2844 0002c70 	j	beq_cont.9008
2845 0002c74 beq_else.9007:
2845 0002c74 	lw	%r1, 6(%r30)
2846 0002c78 	addi	%r2, %r1, 2
2847 0002c7c 	lw.s	%f0, 0(%r2)
2848 0002c80 	lw.s	%f1, 5(%r30)
2849 0002c84 	mul.s	%f0, %f1, %f0
2850 0002c88 	lw.s	%f2, 4(%r30)
2851 0002c8c 	add.s	%f0, %f0, %f2
2852 0002c90 	abs.s	%f0, %f0
2853 0002c94 	lw	%r2, 3(%r30)
2854 0002c98 	sw.s	%f0, 8(%r30)
2855 0002c9c 	addi	%r1, %r2, 0
2856 0002ca0 	sw	%r31, 9(%r30)
2857 0002ca4 	addi	%r30, %r30, 10
2858 0002ca8 	jal	o_param_c.2725
2859 0002cac 	addi	%r30, %r30, -10
2860 0002cb0 	lw	%r31, 9(%r30)
2861 0002cb4 	mov.s	%f1, %f0
2862 0002cb8 	lw.s	%f0, 8(%r30)
2863 0002cbc 	sw	%r31, 9(%r30)
2864 0002cc0 	addi	%r30, %r30, 10
2865 0002cc4 	jal	fless.2627
2866 0002cc8 	addi	%r30, %r30, -10
2867 0002ccc 	lw	%r31, 9(%r30)
2868 0002cd0 	addi	%r26, %r0, 0
2869 0002cd4 	bne	%r1, %r26, beq_else.9009
2870 0002cd8 	addi	%r1, %r0, 0
2871 0002cdc 	j	beq_cont.9010
2872 0002ce0 beq_else.9009:
2872 0002ce0 	lw	%r1, 2(%r30)
2873 0002ce4 	addi	%r2, %r1, 1
2874 0002ce8 	lw.s	%f0, 0(%r2)
2875 0002cec 	sw	%r31, 9(%r30)
2876 0002cf0 	addi	%r30, %r30, 10
2877 0002cf4 	jal	fiszero.2634
2878 0002cf8 	addi	%r30, %r30, -10
2879 0002cfc 	lw	%r31, 9(%r30)
2880 0002d00 	addi	%r26, %r0, 0
2881 0002d04 	bne	%r1, %r26, beq_else.9011
2882 0002d08 	addi	%r1, %r0, 1
2883 0002d0c 	j	beq_cont.9012
2884 0002d10 beq_else.9011:
2884 0002d10 	addi	%r1, %r0, 0
2885 0002d14 beq_cont.9012:
2885 0002d14 beq_cont.9010:
2885 0002d14 beq_cont.9008:
2885 0002d14 	la	%r2, const_array.6368
2887 0002d1c 	addi	%r26, %r0, 0
2888 0002d20 	bne	%r1, %r26, beq_else.9013
2889 0002d24 	lw	%r1, 2(%r30)
2890 0002d28 	addi	%r3, %r1, 2
2891 0002d2c 	lw.s	%f0, 0(%r3)
2892 0002d30 	lw.s	%f1, 1(%r30)
2893 0002d34 	sub.s	%f0, %f0, %f1
2894 0002d38 	addi	%r3, %r1, 3
2895 0002d3c 	lw.s	%f2, 0(%r3)
2896 0002d40 	mul.s	%f0, %f0, %f2
2897 0002d44 	lw	%r3, 6(%r30)
2898 0002d48 	addi	%r4, %r3, 0
2899 0002d4c 	lw.s	%f2, 0(%r4)
2900 0002d50 	mul.s	%f2, %f0, %f2
2901 0002d54 	lw.s	%f3, 0(%r30)
2902 0002d58 	add.s	%f2, %f2, %f3
2903 0002d5c 	abs.s	%f2, %f2
2904 0002d60 	lw	%r4, 3(%r30)
2905 0002d64 	sw	%r2, 9(%r30)
2906 0002d68 	sw.s	%f0, 10(%r30)
2907 0002d6c 	sw.s	%f2, 11(%r30)
2908 0002d70 	addi	%r1, %r4, 0
2909 0002d74 	sw	%r31, 12(%r30)
2910 0002d78 	addi	%r30, %r30, 13
2911 0002d7c 	jal	o_param_a.2721
2912 0002d80 	addi	%r30, %r30, -13
2913 0002d84 	lw	%r31, 12(%r30)
2914 0002d88 	mov.s	%f1, %f0
2915 0002d8c 	lw.s	%f0, 11(%r30)
2916 0002d90 	sw	%r31, 12(%r30)
2917 0002d94 	addi	%r30, %r30, 13
2918 0002d98 	jal	fless.2627
2919 0002d9c 	addi	%r30, %r30, -13
2920 0002da0 	lw	%r31, 12(%r30)
2921 0002da4 	addi	%r26, %r0, 0
2922 0002da8 	bne	%r1, %r26, beq_else.9014
2923 0002dac 	addi	%r1, %r0, 0
2924 0002db0 	j	beq_cont.9015
2925 0002db4 beq_else.9014:
2925 0002db4 	lw	%r1, 6(%r30)
2926 0002db8 	addi	%r2, %r1, 2
2927 0002dbc 	lw.s	%f0, 0(%r2)
2928 0002dc0 	lw.s	%f1, 10(%r30)
2929 0002dc4 	mul.s	%f0, %f1, %f0
2930 0002dc8 	lw.s	%f2, 4(%r30)
2931 0002dcc 	add.s	%f0, %f0, %f2
2932 0002dd0 	abs.s	%f0, %f0
2933 0002dd4 	lw	%r2, 3(%r30)
2934 0002dd8 	sw.s	%f0, 12(%r30)
2935 0002ddc 	addi	%r1, %r2, 0
2936 0002de0 	sw	%r31, 13(%r30)
2937 0002de4 	addi	%r30, %r30, 14
2938 0002de8 	jal	o_param_c.2725
2939 0002dec 	addi	%r30, %r30, -14
2940 0002df0 	lw	%r31, 13(%r30)
2941 0002df4 	mov.s	%f1, %f0
2942 0002df8 	lw.s	%f0, 12(%r30)
2943 0002dfc 	sw	%r31, 13(%r30)
2944 0002e00 	addi	%r30, %r30, 14
2945 0002e04 	jal	fless.2627
2946 0002e08 	addi	%r30, %r30, -14
2947 0002e0c 	lw	%r31, 13(%r30)
2948 0002e10 	addi	%r26, %r0, 0
2949 0002e14 	bne	%r1, %r26, beq_else.9016
2950 0002e18 	addi	%r1, %r0, 0
2951 0002e1c 	j	beq_cont.9017
2952 0002e20 beq_else.9016:
2952 0002e20 	lw	%r1, 2(%r30)
2953 0002e24 	addi	%r2, %r1, 3
2954 0002e28 	lw.s	%f0, 0(%r2)
2955 0002e2c 	sw	%r31, 13(%r30)
2956 0002e30 	addi	%r30, %r30, 14
2957 0002e34 	jal	fiszero.2634
2958 0002e38 	addi	%r30, %r30, -14
2959 0002e3c 	lw	%r31, 13(%r30)
2960 0002e40 	addi	%r26, %r0, 0
2961 0002e44 	bne	%r1, %r26, beq_else.9018
2962 0002e48 	addi	%r1, %r0, 1
2963 0002e4c 	j	beq_cont.9019
2964 0002e50 beq_else.9018:
2964 0002e50 	addi	%r1, %r0, 0
2965 0002e54 beq_cont.9019:
2965 0002e54 beq_cont.9017:
2965 0002e54 beq_cont.9015:
2965 0002e54 	addi	%r26, %r0, 0
2966 0002e58 	bne	%r1, %r26, beq_else.9020
2967 0002e5c 	lw	%r1, 2(%r30)
2968 0002e60 	addi	%r2, %r1, 4
2969 0002e64 	lw.s	%f0, 0(%r2)
2970 0002e68 	lw.s	%f1, 4(%r30)
2971 0002e6c 	sub.s	%f0, %f0, %f1
2972 0002e70 	addi	%r2, %r1, 5
2973 0002e74 	lw.s	%f1, 0(%r2)
2974 0002e78 	mul.s	%f0, %f0, %f1
2975 0002e7c 	lw	%r2, 6(%r30)
2976 0002e80 	addi	%r3, %r2, 0
2977 0002e84 	lw.s	%f1, 0(%r3)
2978 0002e88 	mul.s	%f1, %f0, %f1
2979 0002e8c 	lw.s	%f2, 0(%r30)
2980 0002e90 	add.s	%f1, %f1, %f2
2981 0002e94 	abs.s	%f1, %f1
2982 0002e98 	lw	%r3, 3(%r30)
2983 0002e9c 	sw.s	%f0, 13(%r30)
2984 0002ea0 	sw.s	%f1, 14(%r30)
2985 0002ea4 	addi	%r1, %r3, 0
2986 0002ea8 	sw	%r31, 15(%r30)
2987 0002eac 	addi	%r30, %r30, 16
2988 0002eb0 	jal	o_param_a.2721
2989 0002eb4 	addi	%r30, %r30, -16
2990 0002eb8 	lw	%r31, 15(%r30)
2991 0002ebc 	mov.s	%f1, %f0
2992 0002ec0 	lw.s	%f0, 14(%r30)
2993 0002ec4 	sw	%r31, 15(%r30)
2994 0002ec8 	addi	%r30, %r30, 16
2995 0002ecc 	jal	fless.2627
2996 0002ed0 	addi	%r30, %r30, -16
2997 0002ed4 	lw	%r31, 15(%r30)
2998 0002ed8 	addi	%r26, %r0, 0
2999 0002edc 	bne	%r1, %r26, beq_else.9021
3000 0002ee0 	addi	%r1, %r0, 0
3001 0002ee4 	j	beq_cont.9022
3002 0002ee8 beq_else.9021:
3002 0002ee8 	lw	%r1, 6(%r30)
3003 0002eec 	addi	%r1, %r1, 1
3004 0002ef0 	lw.s	%f0, 0(%r1)
3005 0002ef4 	lw.s	%f1, 13(%r30)
3006 0002ef8 	mul.s	%f0, %f1, %f0
3007 0002efc 	lw.s	%f2, 1(%r30)
3008 0002f00 	add.s	%f0, %f0, %f2
3009 0002f04 	abs.s	%f0, %f0
3010 0002f08 	lw	%r1, 3(%r30)
3011 0002f0c 	sw.s	%f0, 15(%r30)
3012 0002f10 	sw	%r31, 16(%r30)
3013 0002f14 	addi	%r30, %r30, 17
3014 0002f18 	jal	o_param_b.2723
3015 0002f1c 	addi	%r30, %r30, -17
3016 0002f20 	lw	%r31, 16(%r30)
3017 0002f24 	mov.s	%f1, %f0
3018 0002f28 	lw.s	%f0, 15(%r30)
3019 0002f2c 	sw	%r31, 16(%r30)
3020 0002f30 	addi	%r30, %r30, 17
3021 0002f34 	jal	fless.2627
3022 0002f38 	addi	%r30, %r30, -17
3023 0002f3c 	lw	%r31, 16(%r30)
3024 0002f40 	addi	%r26, %r0, 0
3025 0002f44 	bne	%r1, %r26, beq_else.9023
3026 0002f48 	addi	%r1, %r0, 0
3027 0002f4c 	j	beq_cont.9024
3028 0002f50 beq_else.9023:
3028 0002f50 	lw	%r1, 2(%r30)
3029 0002f54 	addi	%r1, %r1, 5
3030 0002f58 	lw.s	%f0, 0(%r1)
3031 0002f5c 	sw	%r31, 16(%r30)
3032 0002f60 	addi	%r30, %r30, 17
3033 0002f64 	jal	fiszero.2634
3034 0002f68 	addi	%r30, %r30, -17
3035 0002f6c 	lw	%r31, 16(%r30)
3036 0002f70 	addi	%r26, %r0, 0
3037 0002f74 	bne	%r1, %r26, beq_else.9025
3038 0002f78 	addi	%r1, %r0, 1
3039 0002f7c 	j	beq_cont.9026
3040 0002f80 beq_else.9025:
3040 0002f80 	addi	%r1, %r0, 0
3041 0002f84 beq_cont.9026:
3041 0002f84 beq_cont.9024:
3041 0002f84 beq_cont.9022:
3041 0002f84 	addi	%r26, %r0, 0
3042 0002f88 	bne	%r1, %r26, beq_else.9027
3043 0002f8c 	addi	%r1, %r0, 0
3044 0002f90 	jr	%r31
3045 0002f94 beq_else.9027:
3045 0002f94 	lw	%r1, 9(%r30)
3046 0002f98 	addi	%r1, %r1, 0
3047 0002f9c 	lw.s	%f0, 13(%r30)
3048 0002fa0 	sw.s	%f0, 0(%r1)
3049 0002fa4 	addi	%r1, %r0, 3
3050 0002fa8 	jr	%r31
3051 0002fac beq_else.9020:
3051 0002fac 	lw	%r1, 9(%r30)
3052 0002fb0 	addi	%r1, %r1, 0
3053 0002fb4 	lw.s	%f0, 10(%r30)
3054 0002fb8 	sw.s	%f0, 0(%r1)
3055 0002fbc 	addi	%r1, %r0, 2
3056 0002fc0 	jr	%r31
3057 0002fc4 beq_else.9013:
3057 0002fc4 	addi	%r1, %r2, 0
3058 0002fc8 	lw.s	%f0, 5(%r30)
3059 0002fcc 	sw.s	%f0, 0(%r1)
3060 0002fd0 	addi	%r1, %r0, 1
3061 0002fd4 	jr	%r31
3062 0002fd8 solver_surface_fast.2856:
3062 0002fd8 	addi	%r1, %r2, 0
3063 0002fdc 	lw.s	%f3, 0(%r1)
3064 0002fe0 	sw.s	%f2, 0(%r30)
3065 0002fe4 	sw.s	%f1, 1(%r30)
3066 0002fe8 	sw.s	%f0, 2(%r30)
3067 0002fec 	sw	%r2, 3(%r30)
3068 0002ff0 	mov.s	%f0, %f3
3069 0002ff4 	sw	%r31, 4(%r30)
3070 0002ff8 	addi	%r30, %r30, 5
3071 0002ffc 	jal	fisneg.2632
3072 0003000 	addi	%r30, %r30, -5
3073 0003004 	lw	%r31, 4(%r30)
3074 0003008 	la	%r2, const_array.6368
3076 0003010 	addi	%r26, %r0, 0
3077 0003014 	bne	%r1, %r26, beq_else.9028
3078 0003018 	addi	%r1, %r0, 0
3079 000301c 	jr	%r31
3080 0003020 beq_else.9028:
3080 0003020 	lw	%r1, 3(%r30)
3081 0003024 	addi	%r3, %r1, 1
3082 0003028 	lw.s	%f0, 0(%r3)
3083 000302c 	lw.s	%f1, 2(%r30)
3084 0003030 	mul.s	%f0, %f0, %f1
3085 0003034 	addi	%r3, %r1, 2
3086 0003038 	lw.s	%f1, 0(%r3)
3087 000303c 	lw.s	%f2, 1(%r30)
3088 0003040 	mul.s	%f1, %f1, %f2
3089 0003044 	add.s	%f0, %f0, %f1
3090 0003048 	addi	%r1, %r1, 3
3091 000304c 	lw.s	%f1, 0(%r1)
3092 0003050 	lw.s	%f2, 0(%r30)
3093 0003054 	mul.s	%f1, %f1, %f2
3094 0003058 	add.s	%f0, %f0, %f1
3095 000305c 	addi	%r1, %r2, 0
3096 0003060 	sw.s	%f0, 0(%r1)
3097 0003064 	addi	%r1, %r0, 1
3098 0003068 	jr	%r31
3099 000306c solver_second_fast.2862:
3099 000306c 	addi	%r3, %r2, 0
3100 0003070 	lw.s	%f3, 0(%r3)
3101 0003074 	sw.s	%f3, 0(%r30)
3102 0003078 	sw	%r1, 1(%r30)
3103 000307c 	sw.s	%f2, 2(%r30)
3104 0003080 	sw.s	%f1, 3(%r30)
3105 0003084 	sw.s	%f0, 4(%r30)
3106 0003088 	sw	%r2, 5(%r30)
3107 000308c 	mov.s	%f0, %f3
3108 0003090 	sw	%r31, 6(%r30)
3109 0003094 	addi	%r30, %r30, 7
3110 0003098 	jal	fiszero.2634
3111 000309c 	addi	%r30, %r30, -7
3112 00030a0 	lw	%r31, 6(%r30)
3113 00030a4 	la	%r2, const_array.6368
3115 00030ac 	addi	%r26, %r0, 0
3116 00030b0 	bne	%r1, %r26, beq_else.9029
3117 00030b4 	lw	%r1, 5(%r30)
3118 00030b8 	addi	%r3, %r1, 1
3119 00030bc 	lw.s	%f0, 0(%r3)
3120 00030c0 	lw.s	%f1, 4(%r30)
3121 00030c4 	mul.s	%f0, %f0, %f1
3122 00030c8 	addi	%r3, %r1, 2
3123 00030cc 	lw.s	%f2, 0(%r3)
3124 00030d0 	lw.s	%f3, 3(%r30)
3125 00030d4 	mul.s	%f2, %f2, %f3
3126 00030d8 	add.s	%f0, %f0, %f2
3127 00030dc 	addi	%r3, %r1, 3
3128 00030e0 	lw.s	%f2, 0(%r3)
3129 00030e4 	lw.s	%f4, 2(%r30)
3130 00030e8 	mul.s	%f2, %f2, %f4
3131 00030ec 	add.s	%f0, %f0, %f2
3132 00030f0 	lw	%r3, 1(%r30)
3133 00030f4 	sw	%r2, 6(%r30)
3134 00030f8 	sw.s	%f0, 7(%r30)
3135 00030fc 	addi	%r1, %r3, 0
3136 0003100 	mov.s	%f2, %f4
3137 0003104 	mov.s	%f0, %f1
3138 0003108 	mov.s	%f1, %f3
3139 000310c 	sw	%r31, 8(%r30)
3140 0003110 	addi	%r30, %r30, 9
3141 0003114 	jal	quadratic.2826
3142 0003118 	addi	%r30, %r30, -9
3143 000311c 	lw	%r31, 8(%r30)
3144 0003120 	lw	%r1, 1(%r30)
3145 0003124 	sw.s	%f0, 8(%r30)
3146 0003128 	sw	%r31, 9(%r30)
3147 000312c 	addi	%r30, %r30, 10
3148 0003130 	jal	o_form.2713
3149 0003134 	addi	%r30, %r30, -10
3150 0003138 	lw	%r31, 9(%r30)
3151 000313c 	addi	%r26, %r0, 3
3152 0003140 	bne	%r1, %r26, beq_else.9030
3153 0003144 	la	%r1, l.6407
3155 000314c 	lw.s	%f0, 0(%r1)
3156 0003150 	lw.s	%f1, 8(%r30)
3157 0003154 	sub.s	%f0, %f1, %f0
3158 0003158 	j	beq_cont.9031
3159 000315c beq_else.9030:
3159 000315c 	lw.s	%f0, 8(%r30)
3160 0003160 	mov.s	%f0, %f0
3161 0003164 beq_cont.9031:
3161 0003164 	lw.s	%f1, 7(%r30)
3162 0003168 	sw.s	%f0, 9(%r30)
3163 000316c 	mov.s	%f0, %f1
3164 0003170 	sw	%r31, 10(%r30)
3165 0003174 	addi	%r30, %r30, 11
3166 0003178 	jal	fsqr.2638
3167 000317c 	addi	%r30, %r30, -11
3168 0003180 	lw	%r31, 10(%r30)
3169 0003184 	lw.s	%f1, 9(%r30)
3170 0003188 	lw.s	%f2, 0(%r30)
3171 000318c 	mul.s	%f1, %f2, %f1
3172 0003190 	sub.s	%f0, %f0, %f1
3173 0003194 	sw.s	%f0, 10(%r30)
3174 0003198 	sw	%r31, 11(%r30)
3175 000319c 	addi	%r30, %r30, 12
3176 00031a0 	jal	fispos.2630
3177 00031a4 	addi	%r30, %r30, -12
3178 00031a8 	lw	%r31, 11(%r30)
3179 00031ac 	addi	%r26, %r0, 0
3180 00031b0 	bne	%r1, %r26, beq_else.9032
3181 00031b4 	addi	%r1, %r0, 0
3182 00031b8 	jr	%r31
3183 00031bc beq_else.9032:
3183 00031bc 	lw	%r1, 1(%r30)
3184 00031c0 	sw	%r31, 11(%r30)
3185 00031c4 	addi	%r30, %r30, 12
3186 00031c8 	jal	o_isinvert.2717
3187 00031cc 	addi	%r30, %r30, -12
3188 00031d0 	lw	%r31, 11(%r30)
3189 00031d4 	addi	%r26, %r0, 0
3190 00031d8 	bne	%r1, %r26, beq_else.9033
3191 00031dc 	lw.s	%f0, 10(%r30)
3192 00031e0 	sqrt.s	%f0, %f0
3193 00031e4 	lw.s	%f1, 7(%r30)
3194 00031e8 	sub.s	%f0, %f1, %f0
3195 00031ec 	lw	%r1, 5(%r30)
3196 00031f0 	addi	%r1, %r1, 4
3197 00031f4 	lw.s	%f1, 0(%r1)
3198 00031f8 	mul.s	%f0, %f0, %f1
3199 00031fc 	lw	%r1, 6(%r30)
3200 0003200 	addi	%r1, %r1, 0
3201 0003204 	sw.s	%f0, 0(%r1)
3202 0003208 	j	beq_cont.9034
3203 000320c beq_else.9033:
3203 000320c 	lw.s	%f0, 10(%r30)
3204 0003210 	sqrt.s	%f0, %f0
3205 0003214 	lw.s	%f1, 7(%r30)
3206 0003218 	add.s	%f0, %f1, %f0
3207 000321c 	lw	%r1, 5(%r30)
3208 0003220 	addi	%r1, %r1, 4
3209 0003224 	lw.s	%f1, 0(%r1)
3210 0003228 	mul.s	%f0, %f0, %f1
3211 000322c 	lw	%r1, 6(%r30)
3212 0003230 	addi	%r1, %r1, 0
3213 0003234 	sw.s	%f0, 0(%r1)
3214 0003238 beq_cont.9034:
3214 0003238 	addi	%r1, %r0, 1
3215 000323c 	jr	%r31
3216 0003240 beq_else.9029:
3216 0003240 	addi	%r1, %r0, 0
3217 0003244 	jr	%r31
3218 0003248 solver_fast.2868:
3218 0003248 	la	%r4, const_array.6361
3220 0003250 	add	%r4, %r4, %r1
3221 0003254 	lw	%r4, 0(%r4)
3222 0003258 	addi	%r5, %r3, 0
3223 000325c 	lw.s	%f0, 0(%r5)
3224 0003260 	sw	%r1, 0(%r30)
3225 0003264 	sw	%r2, 1(%r30)
3226 0003268 	sw	%r4, 2(%r30)
3227 000326c 	sw	%r3, 3(%r30)
3228 0003270 	sw.s	%f0, 4(%r30)
3229 0003274 	addi	%r1, %r4, 0
3230 0003278 	sw	%r31, 5(%r30)
3231 000327c 	addi	%r30, %r30, 6
3232 0003280 	jal	o_param_x.2729
3233 0003284 	addi	%r30, %r30, -6
3234 0003288 	lw	%r31, 5(%r30)
3235 000328c 	lw.s	%f1, 4(%r30)
3236 0003290 	sub.s	%f0, %f1, %f0
3237 0003294 	lw	%r1, 3(%r30)
3238 0003298 	addi	%r2, %r1, 1
3239 000329c 	lw.s	%f1, 0(%r2)
3240 00032a0 	lw	%r2, 2(%r30)
3241 00032a4 	sw.s	%f0, 5(%r30)
3242 00032a8 	sw.s	%f1, 6(%r30)
3243 00032ac 	addi	%r1, %r2, 0
3244 00032b0 	sw	%r31, 7(%r30)
3245 00032b4 	addi	%r30, %r30, 8
3246 00032b8 	jal	o_param_y.2731
3247 00032bc 	addi	%r30, %r30, -8
3248 00032c0 	lw	%r31, 7(%r30)
3249 00032c4 	lw.s	%f1, 6(%r30)
3250 00032c8 	sub.s	%f0, %f1, %f0
3251 00032cc 	lw	%r1, 3(%r30)
3252 00032d0 	addi	%r1, %r1, 2
3253 00032d4 	lw.s	%f1, 0(%r1)
3254 00032d8 	lw	%r1, 2(%r30)
3255 00032dc 	sw.s	%f0, 7(%r30)
3256 00032e0 	sw.s	%f1, 8(%r30)
3257 00032e4 	sw	%r31, 9(%r30)
3258 00032e8 	addi	%r30, %r30, 10
3259 00032ec 	jal	o_param_z.2733
3260 00032f0 	addi	%r30, %r30, -10
3261 00032f4 	lw	%r31, 9(%r30)
3262 00032f8 	lw.s	%f1, 8(%r30)
3263 00032fc 	sub.s	%f0, %f1, %f0
3264 0003300 	lw	%r1, 1(%r30)
3265 0003304 	sw.s	%f0, 9(%r30)
3266 0003308 	sw	%r31, 10(%r30)
3267 000330c 	addi	%r30, %r30, 11
3268 0003310 	jal	d_const.2774
3269 0003314 	addi	%r30, %r30, -11
3270 0003318 	lw	%r31, 10(%r30)
3271 000331c 	lw	%r2, 0(%r30)
3272 0003320 	add	%r1, %r1, %r2
3273 0003324 	lw	%r1, 0(%r1)
3274 0003328 	lw	%r2, 2(%r30)
3275 000332c 	sw	%r1, 10(%r30)
3276 0003330 	addi	%r1, %r2, 0
3277 0003334 	sw	%r31, 11(%r30)
3278 0003338 	addi	%r30, %r30, 12
3279 000333c 	jal	o_form.2713
3280 0003340 	addi	%r30, %r30, -12
3281 0003344 	lw	%r31, 11(%r30)
3282 0003348 	addi	%r26, %r0, 1
3283 000334c 	bne	%r1, %r26, beq_else.9035
3284 0003350 	lw	%r1, 1(%r30)
3285 0003354 	sw	%r31, 11(%r30)
3286 0003358 	addi	%r30, %r30, 12
3287 000335c 	jal	d_vec.2772
3288 0003360 	addi	%r30, %r30, -12
3289 0003364 	lw	%r31, 11(%r30)
3290 0003368 	addi	%r2, %r1, 0
3291 000336c 	lw.s	%f0, 5(%r30)
3292 0003370 	lw.s	%f1, 7(%r30)
3293 0003374 	lw.s	%f2, 9(%r30)
3294 0003378 	lw	%r1, 2(%r30)
3295 000337c 	lw	%r3, 10(%r30)
3296 0003380 	j	solver_rect_fast.2849
3297 0003384 beq_else.9035:
3297 0003384 	addi	%r26, %r0, 2
3298 0003388 	bne	%r1, %r26, beq_else.9036
3299 000338c 	lw.s	%f0, 5(%r30)
3300 0003390 	lw.s	%f1, 7(%r30)
3301 0003394 	lw.s	%f2, 9(%r30)
3302 0003398 	lw	%r1, 2(%r30)
3303 000339c 	lw	%r2, 10(%r30)
3304 00033a0 	j	solver_surface_fast.2856
3305 00033a4 beq_else.9036:
3305 00033a4 	lw.s	%f0, 5(%r30)
3306 00033a8 	lw.s	%f1, 7(%r30)
3307 00033ac 	lw.s	%f2, 9(%r30)
3308 00033b0 	lw	%r1, 2(%r30)
3309 00033b4 	lw	%r2, 10(%r30)
3310 00033b8 	j	solver_second_fast.2862
3311 00033bc solver_surface_fast2.2872:
3311 00033bc 	addi	%r1, %r2, 0
3312 00033c0 	lw.s	%f0, 0(%r1)
3313 00033c4 	sw	%r3, 0(%r30)
3314 00033c8 	sw	%r2, 1(%r30)
3315 00033cc 	sw	%r31, 2(%r30)
3316 00033d0 	addi	%r30, %r30, 3
3317 00033d4 	jal	fisneg.2632
3318 00033d8 	addi	%r30, %r30, -3
3319 00033dc 	lw	%r31, 2(%r30)
3320 00033e0 	la	%r2, const_array.6368
3322 00033e8 	addi	%r26, %r0, 0
3323 00033ec 	bne	%r1, %r26, beq_else.9037
3324 00033f0 	addi	%r1, %r0, 0
3325 00033f4 	jr	%r31
3326 00033f8 beq_else.9037:
3326 00033f8 	lw	%r1, 1(%r30)
3327 00033fc 	addi	%r1, %r1, 0
3328 0003400 	lw.s	%f0, 0(%r1)
3329 0003404 	lw	%r1, 0(%r30)
3330 0003408 	addi	%r1, %r1, 3
3331 000340c 	lw.s	%f1, 0(%r1)
3332 0003410 	mul.s	%f0, %f0, %f1
3333 0003414 	addi	%r1, %r2, 0
3334 0003418 	sw.s	%f0, 0(%r1)
3335 000341c 	addi	%r1, %r0, 1
3336 0003420 	jr	%r31
3337 0003424 solver_second_fast2.2879:
3337 0003424 	addi	%r4, %r2, 0
3338 0003428 	lw.s	%f3, 0(%r4)
3339 000342c 	sw	%r1, 0(%r30)
3340 0003430 	sw.s	%f3, 1(%r30)
3341 0003434 	sw	%r3, 2(%r30)
3342 0003438 	sw.s	%f2, 3(%r30)
3343 000343c 	sw.s	%f1, 4(%r30)
3344 0003440 	sw.s	%f0, 5(%r30)
3345 0003444 	sw	%r2, 6(%r30)
3346 0003448 	mov.s	%f0, %f3
3347 000344c 	sw	%r31, 7(%r30)
3348 0003450 	addi	%r30, %r30, 8
3349 0003454 	jal	fiszero.2634
3350 0003458 	addi	%r30, %r30, -8
3351 000345c 	lw	%r31, 7(%r30)
3352 0003460 	la	%r2, const_array.6368
3354 0003468 	addi	%r26, %r0, 0
3355 000346c 	bne	%r1, %r26, beq_else.9038
3356 0003470 	lw	%r1, 6(%r30)
3357 0003474 	addi	%r3, %r1, 1
3358 0003478 	lw.s	%f0, 0(%r3)
3359 000347c 	lw.s	%f1, 5(%r30)
3360 0003480 	mul.s	%f0, %f0, %f1
3361 0003484 	addi	%r3, %r1, 2
3362 0003488 	lw.s	%f1, 0(%r3)
3363 000348c 	lw.s	%f2, 4(%r30)
3364 0003490 	mul.s	%f1, %f1, %f2
3365 0003494 	add.s	%f0, %f0, %f1
3366 0003498 	addi	%r3, %r1, 3
3367 000349c 	lw.s	%f1, 0(%r3)
3368 00034a0 	lw.s	%f2, 3(%r30)
3369 00034a4 	mul.s	%f1, %f1, %f2
3370 00034a8 	add.s	%f0, %f0, %f1
3371 00034ac 	lw	%r3, 2(%r30)
3372 00034b0 	addi	%r3, %r3, 3
3373 00034b4 	lw.s	%f1, 0(%r3)
3374 00034b8 	sw	%r2, 7(%r30)
3375 00034bc 	sw.s	%f0, 8(%r30)
3376 00034c0 	sw.s	%f1, 9(%r30)
3377 00034c4 	sw	%r31, 10(%r30)
3378 00034c8 	addi	%r30, %r30, 11
3379 00034cc 	jal	fsqr.2638
3380 00034d0 	addi	%r30, %r30, -11
3381 00034d4 	lw	%r31, 10(%r30)
3382 00034d8 	lw.s	%f1, 9(%r30)
3383 00034dc 	lw.s	%f2, 1(%r30)
3384 00034e0 	mul.s	%f1, %f2, %f1
3385 00034e4 	sub.s	%f0, %f0, %f1
3386 00034e8 	sw.s	%f0, 10(%r30)
3387 00034ec 	sw	%r31, 11(%r30)
3388 00034f0 	addi	%r30, %r30, 12
3389 00034f4 	jal	fispos.2630
3390 00034f8 	addi	%r30, %r30, -12
3391 00034fc 	lw	%r31, 11(%r30)
3392 0003500 	addi	%r26, %r0, 0
3393 0003504 	bne	%r1, %r26, beq_else.9039
3394 0003508 	addi	%r1, %r0, 0
3395 000350c 	jr	%r31
3396 0003510 beq_else.9039:
3396 0003510 	lw	%r1, 0(%r30)
3397 0003514 	sw	%r31, 11(%r30)
3398 0003518 	addi	%r30, %r30, 12
3399 000351c 	jal	o_isinvert.2717
3400 0003520 	addi	%r30, %r30, -12
3401 0003524 	lw	%r31, 11(%r30)
3402 0003528 	addi	%r26, %r0, 0
3403 000352c 	bne	%r1, %r26, beq_else.9040
3404 0003530 	lw.s	%f0, 10(%r30)
3405 0003534 	sqrt.s	%f0, %f0
3406 0003538 	lw.s	%f1, 8(%r30)
3407 000353c 	sub.s	%f0, %f1, %f0
3408 0003540 	lw	%r1, 6(%r30)
3409 0003544 	addi	%r1, %r1, 4
3410 0003548 	lw.s	%f1, 0(%r1)
3411 000354c 	mul.s	%f0, %f0, %f1
3412 0003550 	lw	%r1, 7(%r30)
3413 0003554 	addi	%r1, %r1, 0
3414 0003558 	sw.s	%f0, 0(%r1)
3415 000355c 	j	beq_cont.9041
3416 0003560 beq_else.9040:
3416 0003560 	lw.s	%f0, 10(%r30)
3417 0003564 	sqrt.s	%f0, %f0
3418 0003568 	lw.s	%f1, 8(%r30)
3419 000356c 	add.s	%f0, %f1, %f0
3420 0003570 	lw	%r1, 6(%r30)
3421 0003574 	addi	%r1, %r1, 4
3422 0003578 	lw.s	%f1, 0(%r1)
3423 000357c 	mul.s	%f0, %f0, %f1
3424 0003580 	lw	%r1, 7(%r30)
3425 0003584 	addi	%r1, %r1, 0
3426 0003588 	sw.s	%f0, 0(%r1)
3427 000358c beq_cont.9041:
3427 000358c 	addi	%r1, %r0, 1
3428 0003590 	jr	%r31
3429 0003594 beq_else.9038:
3429 0003594 	addi	%r1, %r0, 0
3430 0003598 	jr	%r31
3431 000359c solver_fast2.2886:
3431 000359c 	la	%r3, const_array.6361
3433 00035a4 	add	%r3, %r3, %r1
3434 00035a8 	lw	%r3, 0(%r3)
3435 00035ac 	sw	%r3, 0(%r30)
3436 00035b0 	sw	%r1, 1(%r30)
3437 00035b4 	sw	%r2, 2(%r30)
3438 00035b8 	addi	%r1, %r3, 0
3439 00035bc 	sw	%r31, 3(%r30)
3440 00035c0 	addi	%r30, %r30, 4
3441 00035c4 	jal	o_param_ctbl.2751
3442 00035c8 	addi	%r30, %r30, -4
3443 00035cc 	lw	%r31, 3(%r30)
3444 00035d0 	addi	%r2, %r1, 0
3445 00035d4 	lw.s	%f0, 0(%r2)
3446 00035d8 	addi	%r2, %r1, 1
3447 00035dc 	lw.s	%f1, 0(%r2)
3448 00035e0 	addi	%r2, %r1, 2
3449 00035e4 	lw.s	%f2, 0(%r2)
3450 00035e8 	lw	%r2, 2(%r30)
3451 00035ec 	sw	%r1, 3(%r30)
3452 00035f0 	sw.s	%f2, 4(%r30)
3453 00035f4 	sw.s	%f1, 5(%r30)
3454 00035f8 	sw.s	%f0, 6(%r30)
3455 00035fc 	addi	%r1, %r2, 0
3456 0003600 	sw	%r31, 7(%r30)
3457 0003604 	addi	%r30, %r30, 8
3458 0003608 	jal	d_const.2774
3459 000360c 	addi	%r30, %r30, -8
3460 0003610 	lw	%r31, 7(%r30)
3461 0003614 	lw	%r2, 1(%r30)
3462 0003618 	add	%r1, %r1, %r2
3463 000361c 	lw	%r1, 0(%r1)
3464 0003620 	lw	%r2, 0(%r30)
3465 0003624 	sw	%r1, 7(%r30)
3466 0003628 	addi	%r1, %r2, 0
3467 000362c 	sw	%r31, 8(%r30)
3468 0003630 	addi	%r30, %r30, 9
3469 0003634 	jal	o_form.2713
3470 0003638 	addi	%r30, %r30, -9
3471 000363c 	lw	%r31, 8(%r30)
3472 0003640 	addi	%r26, %r0, 1
3473 0003644 	bne	%r1, %r26, beq_else.9042
3474 0003648 	lw	%r1, 2(%r30)
3475 000364c 	sw	%r31, 8(%r30)
3476 0003650 	addi	%r30, %r30, 9
3477 0003654 	jal	d_vec.2772
3478 0003658 	addi	%r30, %r30, -9
3479 000365c 	lw	%r31, 8(%r30)
3480 0003660 	addi	%r2, %r1, 0
3481 0003664 	lw.s	%f0, 6(%r30)
3482 0003668 	lw.s	%f1, 5(%r30)
3483 000366c 	lw.s	%f2, 4(%r30)
3484 0003670 	lw	%r1, 0(%r30)
3485 0003674 	lw	%r3, 7(%r30)
3486 0003678 	j	solver_rect_fast.2849
3487 000367c beq_else.9042:
3487 000367c 	addi	%r26, %r0, 2
3488 0003680 	bne	%r1, %r26, beq_else.9043
3489 0003684 	lw.s	%f0, 6(%r30)
3490 0003688 	lw.s	%f1, 5(%r30)
3491 000368c 	lw.s	%f2, 4(%r30)
3492 0003690 	lw	%r1, 0(%r30)
3493 0003694 	lw	%r2, 7(%r30)
3494 0003698 	lw	%r3, 3(%r30)
3495 000369c 	j	solver_surface_fast2.2872
3496 00036a0 beq_else.9043:
3496 00036a0 	lw.s	%f0, 6(%r30)
3497 00036a4 	lw.s	%f1, 5(%r30)
3498 00036a8 	lw.s	%f2, 4(%r30)
3499 00036ac 	lw	%r1, 0(%r30)
3500 00036b0 	lw	%r2, 7(%r30)
3501 00036b4 	lw	%r3, 3(%r30)
3502 00036b8 	j	solver_second_fast2.2879
3503 00036bc setup_rect_table.2889:
3503 00036bc 	addi	%r3, %r0, 6
3504 00036c0 	la	%r4, l.6401
3506 00036c8 	lw.s	%f0, 0(%r4)
3507 00036cc 	sw	%r1, 0(%r30)
3508 00036d0 	sw	%r2, 1(%r30)
3509 00036d4 	addi	%r1, %r3, 0
3510 00036d8 	sw	%r31, 2(%r30)
3511 00036dc 	addi	%r30, %r30, 3
3512 00036e0 	jal	min_caml_create_float_array
3513 00036e4 	addi	%r30, %r30, -3
3514 00036e8 	lw	%r31, 2(%r30)
3515 00036ec 	lw	%r2, 0(%r30)
3516 00036f0 	addi	%r3, %r2, 0
3517 00036f4 	lw.s	%f0, 0(%r3)
3518 00036f8 	sw	%r1, 2(%r30)
3519 00036fc 	sw	%r31, 3(%r30)
3520 0003700 	addi	%r30, %r30, 4
3521 0003704 	jal	fiszero.2634
3522 0003708 	addi	%r30, %r30, -4
3523 000370c 	lw	%r31, 3(%r30)
3524 0003710 	addi	%r26, %r0, 0
3525 0003714 	bne	%r1, %r26, beq_else.9044
3526 0003718 	lw	%r1, 1(%r30)
3527 000371c 	sw	%r31, 3(%r30)
3528 0003720 	addi	%r30, %r30, 4
3529 0003724 	jal	o_isinvert.2717
3530 0003728 	addi	%r30, %r30, -4
3531 000372c 	lw	%r31, 3(%r30)
3532 0003730 	lw	%r2, 0(%r30)
3533 0003734 	addi	%r3, %r2, 0
3534 0003738 	lw.s	%f0, 0(%r3)
3535 000373c 	sw	%r1, 3(%r30)
3536 0003740 	sw	%r31, 4(%r30)
3537 0003744 	addi	%r30, %r30, 5
3538 0003748 	jal	fisneg.2632
3539 000374c 	addi	%r30, %r30, -5
3540 0003750 	lw	%r31, 4(%r30)
3541 0003754 	addi	%r2, %r1, 0
3542 0003758 	lw	%r1, 3(%r30)
3543 000375c 	sw	%r31, 4(%r30)
3544 0003760 	addi	%r30, %r30, 5
3545 0003764 	jal	xor.2654
3546 0003768 	addi	%r30, %r30, -5
3547 000376c 	lw	%r31, 4(%r30)
3548 0003770 	lw	%r2, 1(%r30)
3549 0003774 	sw	%r1, 4(%r30)
3550 0003778 	addi	%r1, %r2, 0
3551 000377c 	sw	%r31, 5(%r30)
3552 0003780 	addi	%r30, %r30, 6
3553 0003784 	jal	o_param_a.2721
3554 0003788 	addi	%r30, %r30, -6
3555 000378c 	lw	%r31, 5(%r30)
3556 0003790 	lw	%r1, 4(%r30)
3557 0003794 	sw	%r31, 5(%r30)
3558 0003798 	addi	%r30, %r30, 6
3559 000379c 	jal	fneg_cond.2659
3560 00037a0 	addi	%r30, %r30, -6
3561 00037a4 	lw	%r31, 5(%r30)
3562 00037a8 	lw	%r1, 2(%r30)
3563 00037ac 	addi	%r2, %r1, 0
3564 00037b0 	sw.s	%f0, 0(%r2)
3565 00037b4 	la	%r2, l.6407
3567 00037bc 	lw.s	%f0, 0(%r2)
3568 00037c0 	lw	%r2, 0(%r30)
3569 00037c4 	addi	%r3, %r2, 0
3570 00037c8 	lw.s	%f1, 0(%r3)
3571 00037cc 	div.s	%f0, %f0, %f1
3572 00037d0 	addi	%r3, %r1, 1
3573 00037d4 	sw.s	%f0, 0(%r3)
3574 00037d8 	j	beq_cont.9045
3575 00037dc beq_else.9044:
3575 00037dc 	la	%r1, l.6401
3577 00037e4 	lw.s	%f0, 0(%r1)
3578 00037e8 	lw	%r1, 2(%r30)
3579 00037ec 	addi	%r2, %r1, 1
3580 00037f0 	sw.s	%f0, 0(%r2)
3581 00037f4 beq_cont.9045:
3581 00037f4 	lw	%r2, 0(%r30)
3582 00037f8 	addi	%r3, %r2, 1
3583 00037fc 	lw.s	%f0, 0(%r3)
3584 0003800 	sw	%r31, 5(%r30)
3585 0003804 	addi	%r30, %r30, 6
3586 0003808 	jal	fiszero.2634
3587 000380c 	addi	%r30, %r30, -6
3588 0003810 	lw	%r31, 5(%r30)
3589 0003814 	addi	%r26, %r0, 0
3590 0003818 	bne	%r1, %r26, beq_else.9046
3591 000381c 	lw	%r1, 1(%r30)
3592 0003820 	sw	%r31, 5(%r30)
3593 0003824 	addi	%r30, %r30, 6
3594 0003828 	jal	o_isinvert.2717
3595 000382c 	addi	%r30, %r30, -6
3596 0003830 	lw	%r31, 5(%r30)
3597 0003834 	lw	%r2, 0(%r30)
3598 0003838 	addi	%r3, %r2, 1
3599 000383c 	lw.s	%f0, 0(%r3)
3600 0003840 	sw	%r1, 5(%r30)
3601 0003844 	sw	%r31, 6(%r30)
3602 0003848 	addi	%r30, %r30, 7
3603 000384c 	jal	fisneg.2632
3604 0003850 	addi	%r30, %r30, -7
3605 0003854 	lw	%r31, 6(%r30)
3606 0003858 	addi	%r2, %r1, 0
3607 000385c 	lw	%r1, 5(%r30)
3608 0003860 	sw	%r31, 6(%r30)
3609 0003864 	addi	%r30, %r30, 7
3610 0003868 	jal	xor.2654
3611 000386c 	addi	%r30, %r30, -7
3612 0003870 	lw	%r31, 6(%r30)
3613 0003874 	lw	%r2, 1(%r30)
3614 0003878 	sw	%r1, 6(%r30)
3615 000387c 	addi	%r1, %r2, 0
3616 0003880 	sw	%r31, 7(%r30)
3617 0003884 	addi	%r30, %r30, 8
3618 0003888 	jal	o_param_b.2723
3619 000388c 	addi	%r30, %r30, -8
3620 0003890 	lw	%r31, 7(%r30)
3621 0003894 	lw	%r1, 6(%r30)
3622 0003898 	sw	%r31, 7(%r30)
3623 000389c 	addi	%r30, %r30, 8
3624 00038a0 	jal	fneg_cond.2659
3625 00038a4 	addi	%r30, %r30, -8
3626 00038a8 	lw	%r31, 7(%r30)
3627 00038ac 	lw	%r1, 2(%r30)
3628 00038b0 	addi	%r2, %r1, 2
3629 00038b4 	sw.s	%f0, 0(%r2)
3630 00038b8 	la	%r2, l.6407
3632 00038c0 	lw.s	%f0, 0(%r2)
3633 00038c4 	lw	%r2, 0(%r30)
3634 00038c8 	addi	%r3, %r2, 1
3635 00038cc 	lw.s	%f1, 0(%r3)
3636 00038d0 	div.s	%f0, %f0, %f1
3637 00038d4 	addi	%r3, %r1, 3
3638 00038d8 	sw.s	%f0, 0(%r3)
3639 00038dc 	j	beq_cont.9047
3640 00038e0 beq_else.9046:
3640 00038e0 	la	%r1, l.6401
3642 00038e8 	lw.s	%f0, 0(%r1)
3643 00038ec 	lw	%r1, 2(%r30)
3644 00038f0 	addi	%r2, %r1, 3
3645 00038f4 	sw.s	%f0, 0(%r2)
3646 00038f8 beq_cont.9047:
3646 00038f8 	lw	%r2, 0(%r30)
3647 00038fc 	addi	%r3, %r2, 2
3648 0003900 	lw.s	%f0, 0(%r3)
3649 0003904 	sw	%r31, 7(%r30)
3650 0003908 	addi	%r30, %r30, 8
3651 000390c 	jal	fiszero.2634
3652 0003910 	addi	%r30, %r30, -8
3653 0003914 	lw	%r31, 7(%r30)
3654 0003918 	addi	%r26, %r0, 0
3655 000391c 	bne	%r1, %r26, beq_else.9048
3656 0003920 	lw	%r1, 1(%r30)
3657 0003924 	sw	%r31, 7(%r30)
3658 0003928 	addi	%r30, %r30, 8
3659 000392c 	jal	o_isinvert.2717
3660 0003930 	addi	%r30, %r30, -8
3661 0003934 	lw	%r31, 7(%r30)
3662 0003938 	lw	%r2, 0(%r30)
3663 000393c 	addi	%r3, %r2, 2
3664 0003940 	lw.s	%f0, 0(%r3)
3665 0003944 	sw	%r1, 7(%r30)
3666 0003948 	sw	%r31, 8(%r30)
3667 000394c 	addi	%r30, %r30, 9
3668 0003950 	jal	fisneg.2632
3669 0003954 	addi	%r30, %r30, -9
3670 0003958 	lw	%r31, 8(%r30)
3671 000395c 	addi	%r2, %r1, 0
3672 0003960 	lw	%r1, 7(%r30)
3673 0003964 	sw	%r31, 8(%r30)
3674 0003968 	addi	%r30, %r30, 9
3675 000396c 	jal	xor.2654
3676 0003970 	addi	%r30, %r30, -9
3677 0003974 	lw	%r31, 8(%r30)
3678 0003978 	lw	%r2, 1(%r30)
3679 000397c 	sw	%r1, 8(%r30)
3680 0003980 	addi	%r1, %r2, 0
3681 0003984 	sw	%r31, 9(%r30)
3682 0003988 	addi	%r30, %r30, 10
3683 000398c 	jal	o_param_c.2725
3684 0003990 	addi	%r30, %r30, -10
3685 0003994 	lw	%r31, 9(%r30)
3686 0003998 	lw	%r1, 8(%r30)
3687 000399c 	sw	%r31, 9(%r30)
3688 00039a0 	addi	%r30, %r30, 10
3689 00039a4 	jal	fneg_cond.2659
3690 00039a8 	addi	%r30, %r30, -10
3691 00039ac 	lw	%r31, 9(%r30)
3692 00039b0 	lw	%r1, 2(%r30)
3693 00039b4 	addi	%r2, %r1, 4
3694 00039b8 	sw.s	%f0, 0(%r2)
3695 00039bc 	la	%r2, l.6407
3697 00039c4 	lw.s	%f0, 0(%r2)
3698 00039c8 	lw	%r2, 0(%r30)
3699 00039cc 	addi	%r2, %r2, 2
3700 00039d0 	lw.s	%f1, 0(%r2)
3701 00039d4 	div.s	%f0, %f0, %f1
3702 00039d8 	addi	%r2, %r1, 5
3703 00039dc 	sw.s	%f0, 0(%r2)
3704 00039e0 	j	beq_cont.9049
3705 00039e4 beq_else.9048:
3705 00039e4 	la	%r1, l.6401
3707 00039ec 	lw.s	%f0, 0(%r1)
3708 00039f0 	lw	%r1, 2(%r30)
3709 00039f4 	addi	%r2, %r1, 5
3710 00039f8 	sw.s	%f0, 0(%r2)
3711 00039fc beq_cont.9049:
3711 00039fc 	add	%r1, %r0, %r1
3712 0003a00 	jr	%r31
3713 0003a04 setup_surface_table.2892:
3713 0003a04 	addi	%r3, %r0, 4
3714 0003a08 	la	%r4, l.6401
3716 0003a10 	lw.s	%f0, 0(%r4)
3717 0003a14 	sw	%r1, 0(%r30)
3718 0003a18 	sw	%r2, 1(%r30)
3719 0003a1c 	addi	%r1, %r3, 0
3720 0003a20 	sw	%r31, 2(%r30)
3721 0003a24 	addi	%r30, %r30, 3
3722 0003a28 	jal	min_caml_create_float_array
3723 0003a2c 	addi	%r30, %r30, -3
3724 0003a30 	lw	%r31, 2(%r30)
3725 0003a34 	lw	%r2, 0(%r30)
3726 0003a38 	addi	%r3, %r2, 0
3727 0003a3c 	lw.s	%f0, 0(%r3)
3728 0003a40 	lw	%r3, 1(%r30)
3729 0003a44 	sw	%r1, 2(%r30)
3730 0003a48 	sw.s	%f0, 3(%r30)
3731 0003a4c 	addi	%r1, %r3, 0
3732 0003a50 	sw	%r31, 4(%r30)
3733 0003a54 	addi	%r30, %r30, 5
3734 0003a58 	jal	o_param_a.2721
3735 0003a5c 	addi	%r30, %r30, -5
3736 0003a60 	lw	%r31, 4(%r30)
3737 0003a64 	lw.s	%f1, 3(%r30)
3738 0003a68 	mul.s	%f0, %f1, %f0
3739 0003a6c 	lw	%r1, 0(%r30)
3740 0003a70 	addi	%r2, %r1, 1
3741 0003a74 	lw.s	%f1, 0(%r2)
3742 0003a78 	lw	%r2, 1(%r30)
3743 0003a7c 	sw.s	%f0, 4(%r30)
3744 0003a80 	sw.s	%f1, 5(%r30)
3745 0003a84 	addi	%r1, %r2, 0
3746 0003a88 	sw	%r31, 6(%r30)
3747 0003a8c 	addi	%r30, %r30, 7
3748 0003a90 	jal	o_param_b.2723
3749 0003a94 	addi	%r30, %r30, -7
3750 0003a98 	lw	%r31, 6(%r30)
3751 0003a9c 	lw.s	%f1, 5(%r30)
3752 0003aa0 	mul.s	%f0, %f1, %f0
3753 0003aa4 	lw.s	%f1, 4(%r30)
3754 0003aa8 	add.s	%f0, %f1, %f0
3755 0003aac 	lw	%r1, 0(%r30)
3756 0003ab0 	addi	%r1, %r1, 2
3757 0003ab4 	lw.s	%f1, 0(%r1)
3758 0003ab8 	lw	%r1, 1(%r30)
3759 0003abc 	sw.s	%f0, 6(%r30)
3760 0003ac0 	sw.s	%f1, 7(%r30)
3761 0003ac4 	sw	%r31, 8(%r30)
3762 0003ac8 	addi	%r30, %r30, 9
3763 0003acc 	jal	o_param_c.2725
3764 0003ad0 	addi	%r30, %r30, -9
3765 0003ad4 	lw	%r31, 8(%r30)
3766 0003ad8 	lw.s	%f1, 7(%r30)
3767 0003adc 	mul.s	%f0, %f1, %f0
3768 0003ae0 	lw.s	%f1, 6(%r30)
3769 0003ae4 	add.s	%f0, %f1, %f0
3770 0003ae8 	sw.s	%f0, 8(%r30)
3771 0003aec 	sw	%r31, 9(%r30)
3772 0003af0 	addi	%r30, %r30, 10
3773 0003af4 	jal	fispos.2630
3774 0003af8 	addi	%r30, %r30, -10
3775 0003afc 	lw	%r31, 9(%r30)
3776 0003b00 	addi	%r26, %r0, 0
3777 0003b04 	bne	%r1, %r26, beq_else.9050
3778 0003b08 	la	%r1, l.6401
3780 0003b10 	lw.s	%f0, 0(%r1)
3781 0003b14 	lw	%r1, 2(%r30)
3782 0003b18 	addi	%r2, %r1, 0
3783 0003b1c 	sw.s	%f0, 0(%r2)
3784 0003b20 	j	beq_cont.9051
3785 0003b24 beq_else.9050:
3785 0003b24 	la	%r1, l.6508
3787 0003b2c 	lw.s	%f0, 0(%r1)
3788 0003b30 	lw.s	%f1, 8(%r30)
3789 0003b34 	div.s	%f0, %f0, %f1
3790 0003b38 	lw	%r1, 2(%r30)
3791 0003b3c 	addi	%r2, %r1, 0
3792 0003b40 	sw.s	%f0, 0(%r2)
3793 0003b44 	lw	%r2, 1(%r30)
3794 0003b48 	addi	%r1, %r2, 0
3795 0003b4c 	sw	%r31, 9(%r30)
3796 0003b50 	addi	%r30, %r30, 10
3797 0003b54 	jal	o_param_a.2721
3798 0003b58 	addi	%r30, %r30, -10
3799 0003b5c 	lw	%r31, 9(%r30)
3800 0003b60 	lw.s	%f1, 8(%r30)
3801 0003b64 	div.s	%f0, %f0, %f1
3802 0003b68 	sw	%r31, 9(%r30)
3803 0003b6c 	addi	%r30, %r30, 10
3804 0003b70 	jal	min_caml_fneg
3805 0003b74 	addi	%r30, %r30, -10
3806 0003b78 	lw	%r31, 9(%r30)
3807 0003b7c 	lw	%r1, 2(%r30)
3808 0003b80 	addi	%r2, %r1, 1
3809 0003b84 	sw.s	%f0, 0(%r2)
3810 0003b88 	lw	%r2, 1(%r30)
3811 0003b8c 	addi	%r1, %r2, 0
3812 0003b90 	sw	%r31, 9(%r30)
3813 0003b94 	addi	%r30, %r30, 10
3814 0003b98 	jal	o_param_b.2723
3815 0003b9c 	addi	%r30, %r30, -10
3816 0003ba0 	lw	%r31, 9(%r30)
3817 0003ba4 	lw.s	%f1, 8(%r30)
3818 0003ba8 	div.s	%f0, %f0, %f1
3819 0003bac 	sw	%r31, 9(%r30)
3820 0003bb0 	addi	%r30, %r30, 10
3821 0003bb4 	jal	min_caml_fneg
3822 0003bb8 	addi	%r30, %r30, -10
3823 0003bbc 	lw	%r31, 9(%r30)
3824 0003bc0 	lw	%r1, 2(%r30)
3825 0003bc4 	addi	%r2, %r1, 2
3826 0003bc8 	sw.s	%f0, 0(%r2)
3827 0003bcc 	lw	%r2, 1(%r30)
3828 0003bd0 	addi	%r1, %r2, 0
3829 0003bd4 	sw	%r31, 9(%r30)
3830 0003bd8 	addi	%r30, %r30, 10
3831 0003bdc 	jal	o_param_c.2725
3832 0003be0 	addi	%r30, %r30, -10
3833 0003be4 	lw	%r31, 9(%r30)
3834 0003be8 	lw.s	%f1, 8(%r30)
3835 0003bec 	div.s	%f0, %f0, %f1
3836 0003bf0 	sw	%r31, 9(%r30)
3837 0003bf4 	addi	%r30, %r30, 10
3838 0003bf8 	jal	min_caml_fneg
3839 0003bfc 	addi	%r30, %r30, -10
3840 0003c00 	lw	%r31, 9(%r30)
3841 0003c04 	lw	%r1, 2(%r30)
3842 0003c08 	addi	%r2, %r1, 3
3843 0003c0c 	sw.s	%f0, 0(%r2)
3844 0003c10 beq_cont.9051:
3844 0003c10 	add	%r1, %r0, %r1
3845 0003c14 	jr	%r31
3846 0003c18 setup_second_table.2895:
3846 0003c18 	addi	%r3, %r0, 5
3847 0003c1c 	la	%r4, l.6401
3849 0003c24 	lw.s	%f0, 0(%r4)
3850 0003c28 	sw	%r2, 0(%r30)
3851 0003c2c 	sw	%r1, 1(%r30)
3852 0003c30 	addi	%r1, %r3, 0
3853 0003c34 	sw	%r31, 2(%r30)
3854 0003c38 	addi	%r30, %r30, 3
3855 0003c3c 	jal	min_caml_create_float_array
3856 0003c40 	addi	%r30, %r30, -3
3857 0003c44 	lw	%r31, 2(%r30)
3858 0003c48 	lw	%r2, 1(%r30)
3859 0003c4c 	addi	%r3, %r2, 0
3860 0003c50 	lw.s	%f0, 0(%r3)
3861 0003c54 	addi	%r3, %r2, 1
3862 0003c58 	lw.s	%f1, 0(%r3)
3863 0003c5c 	addi	%r3, %r2, 2
3864 0003c60 	lw.s	%f2, 0(%r3)
3865 0003c64 	lw	%r3, 0(%r30)
3866 0003c68 	sw	%r1, 2(%r30)
3867 0003c6c 	addi	%r1, %r3, 0
3868 0003c70 	sw	%r31, 3(%r30)
3869 0003c74 	addi	%r30, %r30, 4
3870 0003c78 	jal	quadratic.2826
3871 0003c7c 	addi	%r30, %r30, -4
3872 0003c80 	lw	%r31, 3(%r30)
3873 0003c84 	lw	%r1, 1(%r30)
3874 0003c88 	addi	%r2, %r1, 0
3875 0003c8c 	lw.s	%f1, 0(%r2)
3876 0003c90 	lw	%r2, 0(%r30)
3877 0003c94 	sw.s	%f0, 3(%r30)
3878 0003c98 	sw.s	%f1, 4(%r30)
3879 0003c9c 	addi	%r1, %r2, 0
3880 0003ca0 	sw	%r31, 5(%r30)
3881 0003ca4 	addi	%r30, %r30, 6
3882 0003ca8 	jal	o_param_a.2721
3883 0003cac 	addi	%r30, %r30, -6
3884 0003cb0 	lw	%r31, 5(%r30)
3885 0003cb4 	lw.s	%f1, 4(%r30)
3886 0003cb8 	mul.s	%f0, %f1, %f0
3887 0003cbc 	sw	%r31, 5(%r30)
3888 0003cc0 	addi	%r30, %r30, 6
3889 0003cc4 	jal	min_caml_fneg
3890 0003cc8 	addi	%r30, %r30, -6
3891 0003ccc 	lw	%r31, 5(%r30)
3892 0003cd0 	lw	%r1, 1(%r30)
3893 0003cd4 	addi	%r2, %r1, 1
3894 0003cd8 	lw.s	%f1, 0(%r2)
3895 0003cdc 	lw	%r2, 0(%r30)
3896 0003ce0 	sw.s	%f0, 5(%r30)
3897 0003ce4 	sw.s	%f1, 6(%r30)
3898 0003ce8 	addi	%r1, %r2, 0
3899 0003cec 	sw	%r31, 7(%r30)
3900 0003cf0 	addi	%r30, %r30, 8
3901 0003cf4 	jal	o_param_b.2723
3902 0003cf8 	addi	%r30, %r30, -8
3903 0003cfc 	lw	%r31, 7(%r30)
3904 0003d00 	lw.s	%f1, 6(%r30)
3905 0003d04 	mul.s	%f0, %f1, %f0
3906 0003d08 	sw	%r31, 7(%r30)
3907 0003d0c 	addi	%r30, %r30, 8
3908 0003d10 	jal	min_caml_fneg
3909 0003d14 	addi	%r30, %r30, -8
3910 0003d18 	lw	%r31, 7(%r30)
3911 0003d1c 	lw	%r1, 1(%r30)
3912 0003d20 	addi	%r2, %r1, 2
3913 0003d24 	lw.s	%f1, 0(%r2)
3914 0003d28 	lw	%r2, 0(%r30)
3915 0003d2c 	sw.s	%f0, 7(%r30)
3916 0003d30 	sw.s	%f1, 8(%r30)
3917 0003d34 	addi	%r1, %r2, 0
3918 0003d38 	sw	%r31, 9(%r30)
3919 0003d3c 	addi	%r30, %r30, 10
3920 0003d40 	jal	o_param_c.2725
3921 0003d44 	addi	%r30, %r30, -10
3922 0003d48 	lw	%r31, 9(%r30)
3923 0003d4c 	lw.s	%f1, 8(%r30)
3924 0003d50 	mul.s	%f0, %f1, %f0
3925 0003d54 	sw	%r31, 9(%r30)
3926 0003d58 	addi	%r30, %r30, 10
3927 0003d5c 	jal	min_caml_fneg
3928 0003d60 	addi	%r30, %r30, -10
3929 0003d64 	lw	%r31, 9(%r30)
3930 0003d68 	lw	%r1, 2(%r30)
3931 0003d6c 	addi	%r2, %r1, 0
3932 0003d70 	lw.s	%f1, 3(%r30)
3933 0003d74 	sw.s	%f1, 0(%r2)
3934 0003d78 	lw	%r2, 0(%r30)
3935 0003d7c 	sw.s	%f0, 9(%r30)
3936 0003d80 	addi	%r1, %r2, 0
3937 0003d84 	sw	%r31, 10(%r30)
3938 0003d88 	addi	%r30, %r30, 11
3939 0003d8c 	jal	o_isrot.2719
3940 0003d90 	addi	%r30, %r30, -11
3941 0003d94 	lw	%r31, 10(%r30)
3942 0003d98 	addi	%r26, %r0, 0
3943 0003d9c 	bne	%r1, %r26, beq_else.9052
3944 0003da0 	lw	%r1, 2(%r30)
3945 0003da4 	addi	%r2, %r1, 1
3946 0003da8 	lw.s	%f0, 5(%r30)
3947 0003dac 	sw.s	%f0, 0(%r2)
3948 0003db0 	addi	%r2, %r1, 2
3949 0003db4 	lw.s	%f0, 7(%r30)
3950 0003db8 	sw.s	%f0, 0(%r2)
3951 0003dbc 	addi	%r2, %r1, 3
3952 0003dc0 	lw.s	%f0, 9(%r30)
3953 0003dc4 	sw.s	%f0, 0(%r2)
3954 0003dc8 	j	beq_cont.9053
3955 0003dcc beq_else.9052:
3955 0003dcc 	lw	%r1, 1(%r30)
3956 0003dd0 	addi	%r2, %r1, 2
3957 0003dd4 	lw.s	%f0, 0(%r2)
3958 0003dd8 	lw	%r2, 0(%r30)
3959 0003ddc 	sw.s	%f0, 10(%r30)
3960 0003de0 	addi	%r1, %r2, 0
3961 0003de4 	sw	%r31, 11(%r30)
3962 0003de8 	addi	%r30, %r30, 12
3963 0003dec 	jal	o_param_r2.2747
3964 0003df0 	addi	%r30, %r30, -12
3965 0003df4 	lw	%r31, 11(%r30)
3966 0003df8 	lw.s	%f1, 10(%r30)
3967 0003dfc 	mul.s	%f0, %f1, %f0
3968 0003e00 	lw	%r1, 1(%r30)
3969 0003e04 	addi	%r2, %r1, 1
3970 0003e08 	lw.s	%f1, 0(%r2)
3971 0003e0c 	lw	%r2, 0(%r30)
3972 0003e10 	sw.s	%f0, 11(%r30)
3973 0003e14 	sw.s	%f1, 12(%r30)
3974 0003e18 	addi	%r1, %r2, 0
3975 0003e1c 	sw	%r31, 13(%r30)
3976 0003e20 	addi	%r30, %r30, 14
3977 0003e24 	jal	o_param_r3.2749
3978 0003e28 	addi	%r30, %r30, -14
3979 0003e2c 	lw	%r31, 13(%r30)
3980 0003e30 	lw.s	%f1, 12(%r30)
3981 0003e34 	mul.s	%f0, %f1, %f0
3982 0003e38 	lw.s	%f1, 11(%r30)
3983 0003e3c 	add.s	%f0, %f1, %f0
3984 0003e40 	sw	%r31, 13(%r30)
3985 0003e44 	addi	%r30, %r30, 14
3986 0003e48 	jal	fhalf.2636
3987 0003e4c 	addi	%r30, %r30, -14
3988 0003e50 	lw	%r31, 13(%r30)
3989 0003e54 	lw.s	%f1, 5(%r30)
3990 0003e58 	sub.s	%f0, %f1, %f0
3991 0003e5c 	lw	%r1, 2(%r30)
3992 0003e60 	addi	%r2, %r1, 1
3993 0003e64 	sw.s	%f0, 0(%r2)
3994 0003e68 	lw	%r2, 1(%r30)
3995 0003e6c 	addi	%r3, %r2, 2
3996 0003e70 	lw.s	%f0, 0(%r3)
3997 0003e74 	lw	%r3, 0(%r30)
3998 0003e78 	sw.s	%f0, 13(%r30)
3999 0003e7c 	addi	%r1, %r3, 0
4000 0003e80 	sw	%r31, 14(%r30)
4001 0003e84 	addi	%r30, %r30, 15
4002 0003e88 	jal	o_param_r1.2745
4003 0003e8c 	addi	%r30, %r30, -15
4004 0003e90 	lw	%r31, 14(%r30)
4005 0003e94 	lw.s	%f1, 13(%r30)
4006 0003e98 	mul.s	%f0, %f1, %f0
4007 0003e9c 	lw	%r1, 1(%r30)
4008 0003ea0 	addi	%r2, %r1, 0
4009 0003ea4 	lw.s	%f1, 0(%r2)
4010 0003ea8 	lw	%r2, 0(%r30)
4011 0003eac 	sw.s	%f0, 14(%r30)
4012 0003eb0 	sw.s	%f1, 15(%r30)
4013 0003eb4 	addi	%r1, %r2, 0
4014 0003eb8 	sw	%r31, 16(%r30)
4015 0003ebc 	addi	%r30, %r30, 17
4016 0003ec0 	jal	o_param_r3.2749
4017 0003ec4 	addi	%r30, %r30, -17
4018 0003ec8 	lw	%r31, 16(%r30)
4019 0003ecc 	lw.s	%f1, 15(%r30)
4020 0003ed0 	mul.s	%f0, %f1, %f0
4021 0003ed4 	lw.s	%f1, 14(%r30)
4022 0003ed8 	add.s	%f0, %f1, %f0
4023 0003edc 	sw	%r31, 16(%r30)
4024 0003ee0 	addi	%r30, %r30, 17
4025 0003ee4 	jal	fhalf.2636
4026 0003ee8 	addi	%r30, %r30, -17
4027 0003eec 	lw	%r31, 16(%r30)
4028 0003ef0 	lw.s	%f1, 7(%r30)
4029 0003ef4 	sub.s	%f0, %f1, %f0
4030 0003ef8 	lw	%r1, 2(%r30)
4031 0003efc 	addi	%r2, %r1, 2
4032 0003f00 	sw.s	%f0, 0(%r2)
4033 0003f04 	lw	%r2, 1(%r30)
4034 0003f08 	addi	%r3, %r2, 1
4035 0003f0c 	lw.s	%f0, 0(%r3)
4036 0003f10 	lw	%r3, 0(%r30)
4037 0003f14 	sw.s	%f0, 16(%r30)
4038 0003f18 	addi	%r1, %r3, 0
4039 0003f1c 	sw	%r31, 17(%r30)
4040 0003f20 	addi	%r30, %r30, 18
4041 0003f24 	jal	o_param_r1.2745
4042 0003f28 	addi	%r30, %r30, -18
4043 0003f2c 	lw	%r31, 17(%r30)
4044 0003f30 	lw.s	%f1, 16(%r30)
4045 0003f34 	mul.s	%f0, %f1, %f0
4046 0003f38 	lw	%r1, 1(%r30)
4047 0003f3c 	addi	%r1, %r1, 0
4048 0003f40 	lw.s	%f1, 0(%r1)
4049 0003f44 	lw	%r1, 0(%r30)
4050 0003f48 	sw.s	%f0, 17(%r30)
4051 0003f4c 	sw.s	%f1, 18(%r30)
4052 0003f50 	sw	%r31, 19(%r30)
4053 0003f54 	addi	%r30, %r30, 20
4054 0003f58 	jal	o_param_r2.2747
4055 0003f5c 	addi	%r30, %r30, -20
4056 0003f60 	lw	%r31, 19(%r30)
4057 0003f64 	lw.s	%f1, 18(%r30)
4058 0003f68 	mul.s	%f0, %f1, %f0
4059 0003f6c 	lw.s	%f1, 17(%r30)
4060 0003f70 	add.s	%f0, %f1, %f0
4061 0003f74 	sw	%r31, 19(%r30)
4062 0003f78 	addi	%r30, %r30, 20
4063 0003f7c 	jal	fhalf.2636
4064 0003f80 	addi	%r30, %r30, -20
4065 0003f84 	lw	%r31, 19(%r30)
4066 0003f88 	lw.s	%f1, 9(%r30)
4067 0003f8c 	sub.s	%f0, %f1, %f0
4068 0003f90 	lw	%r1, 2(%r30)
4069 0003f94 	addi	%r2, %r1, 3
4070 0003f98 	sw.s	%f0, 0(%r2)
4071 0003f9c beq_cont.9053:
4071 0003f9c 	lw.s	%f0, 3(%r30)
4072 0003fa0 	sw	%r31, 19(%r30)
4073 0003fa4 	addi	%r30, %r30, 20
4074 0003fa8 	jal	fiszero.2634
4075 0003fac 	addi	%r30, %r30, -20
4076 0003fb0 	lw	%r31, 19(%r30)
4077 0003fb4 	addi	%r26, %r0, 0
4078 0003fb8 	bne	%r1, %r26, beq_else.9054
4079 0003fbc 	la	%r1, l.6407
4081 0003fc4 	lw.s	%f0, 0(%r1)
4082 0003fc8 	lw.s	%f1, 3(%r30)
4083 0003fcc 	div.s	%f0, %f0, %f1
4084 0003fd0 	lw	%r1, 2(%r30)
4085 0003fd4 	addi	%r2, %r1, 4
4086 0003fd8 	sw.s	%f0, 0(%r2)
4087 0003fdc 	j	beq_cont.9055
4088 0003fe0 beq_else.9054:
4088 0003fe0 beq_cont.9055:
4088 0003fe0 	lw	%r1, 2(%r30)
4089 0003fe4 	add	%r1, %r0, %r1
4090 0003fe8 	jr	%r31
4091 0003fec iter_setup_dirvec_constants.2898:
4091 0003fec 	la	%r3, const_array.6361
4093 0003ff4 	addi	%r26, %r0, 0
4094 0003ff8 	slt	%r28, %r26, %r2
4095 0003ffc 	beq	%r28, %r0, bne_else.9056
4096 0004000 	add	%r3, %r3, %r2
4097 0004004 	lw	%r3, 0(%r3)
4098 0004008 	sw	%r1, 0(%r30)
4099 000400c 	sw	%r2, 1(%r30)
4100 0004010 	sw	%r3, 2(%r30)
4101 0004014 	sw	%r31, 3(%r30)
4102 0004018 	addi	%r30, %r30, 4
4103 000401c 	jal	d_const.2774
4104 0004020 	addi	%r30, %r30, -4
4105 0004024 	lw	%r31, 3(%r30)
4106 0004028 	lw	%r2, 0(%r30)
4107 000402c 	sw	%r1, 3(%r30)
4108 0004030 	addi	%r1, %r2, 0
4109 0004034 	sw	%r31, 4(%r30)
4110 0004038 	addi	%r30, %r30, 5
4111 000403c 	jal	d_vec.2772
4112 0004040 	addi	%r30, %r30, -5
4113 0004044 	lw	%r31, 4(%r30)
4114 0004048 	lw	%r2, 2(%r30)
4115 000404c 	sw	%r1, 4(%r30)
4116 0004050 	addi	%r1, %r2, 0
4117 0004054 	sw	%r31, 5(%r30)
4118 0004058 	addi	%r30, %r30, 6
4119 000405c 	jal	o_form.2713
4120 0004060 	addi	%r30, %r30, -6
4121 0004064 	lw	%r31, 5(%r30)
4122 0004068 	addi	%r26, %r0, 1
4123 000406c 	bne	%r1, %r26, beq_else.9057
4124 0004070 	lw	%r1, 4(%r30)
4125 0004074 	lw	%r2, 2(%r30)
4126 0004078 	sw	%r31, 5(%r30)
4127 000407c 	addi	%r30, %r30, 6
4128 0004080 	jal	setup_rect_table.2889
4129 0004084 	addi	%r30, %r30, -6
4130 0004088 	lw	%r31, 5(%r30)
4131 000408c 	lw	%r2, 1(%r30)
4132 0004090 	lw	%r3, 3(%r30)
4133 0004094 	add	%r3, %r3, %r2
4134 0004098 	sw	%r1, 0(%r3)
4135 000409c 	j	beq_cont.9058
4136 00040a0 beq_else.9057:
4136 00040a0 	addi	%r26, %r0, 2
4137 00040a4 	bne	%r1, %r26, beq_else.9059
4138 00040a8 	lw	%r1, 4(%r30)
4139 00040ac 	lw	%r2, 2(%r30)
4140 00040b0 	sw	%r31, 5(%r30)
4141 00040b4 	addi	%r30, %r30, 6
4142 00040b8 	jal	setup_surface_table.2892
4143 00040bc 	addi	%r30, %r30, -6
4144 00040c0 	lw	%r31, 5(%r30)
4145 00040c4 	lw	%r2, 1(%r30)
4146 00040c8 	lw	%r3, 3(%r30)
4147 00040cc 	add	%r3, %r3, %r2
4148 00040d0 	sw	%r1, 0(%r3)
4149 00040d4 	j	beq_cont.9060
4150 00040d8 beq_else.9059:
4150 00040d8 	lw	%r1, 4(%r30)
4151 00040dc 	lw	%r2, 2(%r30)
4152 00040e0 	sw	%r31, 5(%r30)
4153 00040e4 	addi	%r30, %r30, 6
4154 00040e8 	jal	setup_second_table.2895
4155 00040ec 	addi	%r30, %r30, -6
4156 00040f0 	lw	%r31, 5(%r30)
4157 00040f4 	lw	%r2, 1(%r30)
4158 00040f8 	lw	%r3, 3(%r30)
4159 00040fc 	add	%r3, %r3, %r2
4160 0004100 	sw	%r1, 0(%r3)
4161 0004104 beq_cont.9060:
4161 0004104 beq_cont.9058:
4161 0004104 	addi	%r2, %r2, -1
4162 0004108 	lw	%r1, 0(%r30)
4163 000410c 	j	iter_setup_dirvec_constants.2898
4164 0004110 bne_else.9056:
4164 0004110 	jr	%r31
4165 0004114 setup_dirvec_constants.2901:
4165 0004114 	la	%r2, const_array.6358
4167 000411c 	addi	%r2, %r2, 0
4168 0004120 	lw	%r2, 0(%r2)
4169 0004124 	addi	%r2, %r2, -1
4170 0004128 	j	iter_setup_dirvec_constants.2898
4171 000412c setup_startp_constants.2903:
4171 000412c 	la	%r3, const_array.6361
4173 0004134 	addi	%r26, %r0, 0
4174 0004138 	slt	%r28, %r26, %r2
4175 000413c 	beq	%r28, %r0, bne_else.9062
4176 0004140 	add	%r3, %r3, %r2
4177 0004144 	lw	%r3, 0(%r3)
4178 0004148 	sw	%r2, 0(%r30)
4179 000414c 	sw	%r3, 1(%r30)
4180 0004150 	sw	%r1, 2(%r30)
4181 0004154 	addi	%r1, %r3, 0
4182 0004158 	sw	%r31, 3(%r30)
4183 000415c 	addi	%r30, %r30, 4
4184 0004160 	jal	o_param_ctbl.2751
4185 0004164 	addi	%r30, %r30, -4
4186 0004168 	lw	%r31, 3(%r30)
4187 000416c 	lw	%r2, 1(%r30)
4188 0004170 	sw	%r1, 3(%r30)
4189 0004174 	addi	%r1, %r2, 0
4190 0004178 	sw	%r31, 4(%r30)
4191 000417c 	addi	%r30, %r30, 5
4192 0004180 	jal	o_form.2713
4193 0004184 	addi	%r30, %r30, -5
4194 0004188 	lw	%r31, 4(%r30)
4195 000418c 	lw	%r2, 2(%r30)
4196 0004190 	addi	%r3, %r2, 0
4197 0004194 	lw.s	%f0, 0(%r3)
4198 0004198 	lw	%r3, 1(%r30)
4199 000419c 	sw	%r1, 4(%r30)
4200 00041a0 	sw.s	%f0, 5(%r30)
4201 00041a4 	addi	%r1, %r3, 0
4202 00041a8 	sw	%r31, 6(%r30)
4203 00041ac 	addi	%r30, %r30, 7
4204 00041b0 	jal	o_param_x.2729
4205 00041b4 	addi	%r30, %r30, -7
4206 00041b8 	lw	%r31, 6(%r30)
4207 00041bc 	lw.s	%f1, 5(%r30)
4208 00041c0 	sub.s	%f0, %f1, %f0
4209 00041c4 	lw	%r1, 3(%r30)
4210 00041c8 	addi	%r2, %r1, 0
4211 00041cc 	sw.s	%f0, 0(%r2)
4212 00041d0 	lw	%r2, 2(%r30)
4213 00041d4 	addi	%r3, %r2, 1
4214 00041d8 	lw.s	%f0, 0(%r3)
4215 00041dc 	lw	%r3, 1(%r30)
4216 00041e0 	sw.s	%f0, 6(%r30)
4217 00041e4 	addi	%r1, %r3, 0
4218 00041e8 	sw	%r31, 7(%r30)
4219 00041ec 	addi	%r30, %r30, 8
4220 00041f0 	jal	o_param_y.2731
4221 00041f4 	addi	%r30, %r30, -8
4222 00041f8 	lw	%r31, 7(%r30)
4223 00041fc 	lw.s	%f1, 6(%r30)
4224 0004200 	sub.s	%f0, %f1, %f0
4225 0004204 	lw	%r1, 3(%r30)
4226 0004208 	addi	%r2, %r1, 1
4227 000420c 	sw.s	%f0, 0(%r2)
4228 0004210 	lw	%r2, 2(%r30)
4229 0004214 	addi	%r3, %r2, 2
4230 0004218 	lw.s	%f0, 0(%r3)
4231 000421c 	lw	%r3, 1(%r30)
4232 0004220 	sw.s	%f0, 7(%r30)
4233 0004224 	addi	%r1, %r3, 0
4234 0004228 	sw	%r31, 8(%r30)
4235 000422c 	addi	%r30, %r30, 9
4236 0004230 	jal	o_param_z.2733
4237 0004234 	addi	%r30, %r30, -9
4238 0004238 	lw	%r31, 8(%r30)
4239 000423c 	lw.s	%f1, 7(%r30)
4240 0004240 	sub.s	%f0, %f1, %f0
4241 0004244 	lw	%r1, 3(%r30)
4242 0004248 	addi	%r2, %r1, 2
4243 000424c 	sw.s	%f0, 0(%r2)
4244 0004250 	lw	%r2, 4(%r30)
4245 0004254 	addi	%r26, %r0, 2
4246 0004258 	bne	%r2, %r26, beq_else.9063
4247 000425c 	lw	%r2, 1(%r30)
4248 0004260 	addi	%r1, %r2, 0
4249 0004264 	sw	%r31, 8(%r30)
4250 0004268 	addi	%r30, %r30, 9
4251 000426c 	jal	o_param_abc.2727
4252 0004270 	addi	%r30, %r30, -9
4253 0004274 	lw	%r31, 8(%r30)
4254 0004278 	lw	%r2, 3(%r30)
4255 000427c 	addi	%r3, %r2, 0
4256 0004280 	lw.s	%f0, 0(%r3)
4257 0004284 	addi	%r3, %r2, 1
4258 0004288 	lw.s	%f1, 0(%r3)
4259 000428c 	addi	%r3, %r2, 2
4260 0004290 	lw.s	%f2, 0(%r3)
4261 0004294 	sw	%r31, 8(%r30)
4262 0004298 	addi	%r30, %r30, 9
4263 000429c 	jal	veciprod2.2689
4264 00042a0 	addi	%r30, %r30, -9
4265 00042a4 	lw	%r31, 8(%r30)
4266 00042a8 	lw	%r1, 3(%r30)
4267 00042ac 	addi	%r1, %r1, 3
4268 00042b0 	sw.s	%f0, 0(%r1)
4269 00042b4 	j	beq_cont.9064
4270 00042b8 beq_else.9063:
4270 00042b8 	slti	%r28, %r2, 2
4271 00042bc 	beq	%r28, %r0, bne_else.9065
4272 00042c0 	j	bne_cont.9066
4273 00042c4 bne_else.9065:
4273 00042c4 	addi	%r3, %r1, 0
4274 00042c8 	lw.s	%f0, 0(%r3)
4275 00042cc 	addi	%r3, %r1, 1
4276 00042d0 	lw.s	%f1, 0(%r3)
4277 00042d4 	addi	%r3, %r1, 2
4278 00042d8 	lw.s	%f2, 0(%r3)
4279 00042dc 	lw	%r3, 1(%r30)
4280 00042e0 	addi	%r1, %r3, 0
4281 00042e4 	sw	%r31, 8(%r30)
4282 00042e8 	addi	%r30, %r30, 9
4283 00042ec 	jal	quadratic.2826
4284 00042f0 	addi	%r30, %r30, -9
4285 00042f4 	lw	%r31, 8(%r30)
4286 00042f8 	lw	%r1, 4(%r30)
4287 00042fc 	addi	%r26, %r0, 3
4288 0004300 	bne	%r1, %r26, beq_else.9067
4289 0004304 	la	%r1, l.6407
4291 000430c 	lw.s	%f1, 0(%r1)
4292 0004310 	sub.s	%f0, %f0, %f1
4293 0004314 	j	beq_cont.9068
4294 0004318 beq_else.9067:
4294 0004318 	mov.s	%f0, %f0
4295 000431c beq_cont.9068:
4295 000431c 	lw	%r1, 3(%r30)
4296 0004320 	addi	%r1, %r1, 3
4297 0004324 	sw.s	%f0, 0(%r1)
4298 0004328 bne_cont.9066:
4298 0004328 beq_cont.9064:
4298 0004328 	lw	%r1, 0(%r30)
4299 000432c 	addi	%r2, %r1, -1
4300 0004330 	lw	%r1, 2(%r30)
4301 0004334 	j	setup_startp_constants.2903
4302 0004338 bne_else.9062:
4302 0004338 	jr	%r31
4303 000433c setup_startp.2906:
4303 000433c 	la	%r2, const_array.6381
4305 0004344 	sw	%r1, 0(%r30)
4306 0004348 	addi	%r26, %r2, 0
4307 000434c 	addi	%r2, %r1, 0
4308 0004350 	addi	%r1, %r26, 0
4309 0004354 	sw	%r31, 1(%r30)
4310 0004358 	addi	%r30, %r30, 2
4311 000435c 	jal	veccpy.2675
4312 0004360 	addi	%r30, %r30, -2
4313 0004364 	lw	%r31, 1(%r30)
4314 0004368 	la	%r1, const_array.6358
4316 0004370 	addi	%r1, %r1, 0
4317 0004374 	lw	%r1, 0(%r1)
4318 0004378 	addi	%r2, %r1, -1
4319 000437c 	lw	%r1, 0(%r30)
4320 0004380 	j	setup_startp_constants.2903
4321 0004384 is_rect_outside.2908:
4321 0004384 	abs.s	%f0, %f0
4322 0004388 	sw.s	%f2, 0(%r30)
4323 000438c 	sw	%r1, 1(%r30)
4324 0004390 	sw.s	%f1, 2(%r30)
4325 0004394 	sw.s	%f0, 3(%r30)
4326 0004398 	sw	%r31, 4(%r30)
4327 000439c 	addi	%r30, %r30, 5
4328 00043a0 	jal	o_param_a.2721
4329 00043a4 	addi	%r30, %r30, -5
4330 00043a8 	lw	%r31, 4(%r30)
4331 00043ac 	mov.s	%f1, %f0
4332 00043b0 	lw.s	%f0, 3(%r30)
4333 00043b4 	sw	%r31, 4(%r30)
4334 00043b8 	addi	%r30, %r30, 5
4335 00043bc 	jal	fless.2627
4336 00043c0 	addi	%r30, %r30, -5
4337 00043c4 	lw	%r31, 4(%r30)
4338 00043c8 	addi	%r26, %r0, 0
4339 00043cc 	bne	%r1, %r26, beq_else.9070
4340 00043d0 	addi	%r1, %r0, 0
4341 00043d4 	j	beq_cont.9071
4342 00043d8 beq_else.9070:
4342 00043d8 	lw.s	%f0, 2(%r30)
4343 00043dc 	abs.s	%f0, %f0
4344 00043e0 	lw	%r1, 1(%r30)
4345 00043e4 	sw.s	%f0, 4(%r30)
4346 00043e8 	sw	%r31, 5(%r30)
4347 00043ec 	addi	%r30, %r30, 6
4348 00043f0 	jal	o_param_b.2723
4349 00043f4 	addi	%r30, %r30, -6
4350 00043f8 	lw	%r31, 5(%r30)
4351 00043fc 	mov.s	%f1, %f0
4352 0004400 	lw.s	%f0, 4(%r30)
4353 0004404 	sw	%r31, 5(%r30)
4354 0004408 	addi	%r30, %r30, 6
4355 000440c 	jal	fless.2627
4356 0004410 	addi	%r30, %r30, -6
4357 0004414 	lw	%r31, 5(%r30)
4358 0004418 	addi	%r26, %r0, 0
4359 000441c 	bne	%r1, %r26, beq_else.9072
4360 0004420 	addi	%r1, %r0, 0
4361 0004424 	j	beq_cont.9073
4362 0004428 beq_else.9072:
4362 0004428 	lw.s	%f0, 0(%r30)
4363 000442c 	abs.s	%f0, %f0
4364 0004430 	lw	%r1, 1(%r30)
4365 0004434 	sw.s	%f0, 5(%r30)
4366 0004438 	sw	%r31, 6(%r30)
4367 000443c 	addi	%r30, %r30, 7
4368 0004440 	jal	o_param_c.2725
4369 0004444 	addi	%r30, %r30, -7
4370 0004448 	lw	%r31, 6(%r30)
4371 000444c 	mov.s	%f1, %f0
4372 0004450 	lw.s	%f0, 5(%r30)
4373 0004454 	sw	%r31, 6(%r30)
4374 0004458 	addi	%r30, %r30, 7
4375 000445c 	jal	fless.2627
4376 0004460 	addi	%r30, %r30, -7
4377 0004464 	lw	%r31, 6(%r30)
4378 0004468 beq_cont.9073:
4378 0004468 beq_cont.9071:
4378 0004468 	addi	%r26, %r0, 0
4379 000446c 	bne	%r1, %r26, beq_else.9074
4380 0004470 	lw	%r1, 1(%r30)
4381 0004474 	sw	%r31, 6(%r30)
4382 0004478 	addi	%r30, %r30, 7
4383 000447c 	jal	o_isinvert.2717
4384 0004480 	addi	%r30, %r30, -7
4385 0004484 	lw	%r31, 6(%r30)
4386 0004488 	addi	%r26, %r0, 0
4387 000448c 	bne	%r1, %r26, beq_else.9075
4388 0004490 	addi	%r1, %r0, 1
4389 0004494 	jr	%r31
4390 0004498 beq_else.9075:
4390 0004498 	addi	%r1, %r0, 0
4391 000449c 	jr	%r31
4392 00044a0 beq_else.9074:
4392 00044a0 	lw	%r1, 1(%r30)
4393 00044a4 	j	o_isinvert.2717
4394 00044a8 is_plane_outside.2913:
4394 00044a8 	sw	%r1, 0(%r30)
4395 00044ac 	sw.s	%f2, 1(%r30)
4396 00044b0 	sw.s	%f1, 2(%r30)
4397 00044b4 	sw.s	%f0, 3(%r30)
4398 00044b8 	sw	%r31, 4(%r30)
4399 00044bc 	addi	%r30, %r30, 5
4400 00044c0 	jal	o_param_abc.2727
4401 00044c4 	addi	%r30, %r30, -5
4402 00044c8 	lw	%r31, 4(%r30)
4403 00044cc 	lw.s	%f0, 3(%r30)
4404 00044d0 	lw.s	%f1, 2(%r30)
4405 00044d4 	lw.s	%f2, 1(%r30)
4406 00044d8 	sw	%r31, 4(%r30)
4407 00044dc 	addi	%r30, %r30, 5
4408 00044e0 	jal	veciprod2.2689
4409 00044e4 	addi	%r30, %r30, -5
4410 00044e8 	lw	%r31, 4(%r30)
4411 00044ec 	lw	%r1, 0(%r30)
4412 00044f0 	sw.s	%f0, 4(%r30)
4413 00044f4 	sw	%r31, 5(%r30)
4414 00044f8 	addi	%r30, %r30, 6
4415 00044fc 	jal	o_isinvert.2717
4416 0004500 	addi	%r30, %r30, -6
4417 0004504 	lw	%r31, 5(%r30)
4418 0004508 	lw.s	%f0, 4(%r30)
4419 000450c 	sw	%r1, 5(%r30)
4420 0004510 	sw	%r31, 6(%r30)
4421 0004514 	addi	%r30, %r30, 7
4422 0004518 	jal	fisneg.2632
4423 000451c 	addi	%r30, %r30, -7
4424 0004520 	lw	%r31, 6(%r30)
4425 0004524 	addi	%r2, %r1, 0
4426 0004528 	lw	%r1, 5(%r30)
4427 000452c 	sw	%r31, 6(%r30)
4428 0004530 	addi	%r30, %r30, 7
4429 0004534 	jal	xor.2654
4430 0004538 	addi	%r30, %r30, -7
4431 000453c 	lw	%r31, 6(%r30)
4432 0004540 	addi	%r26, %r0, 0
4433 0004544 	bne	%r1, %r26, beq_else.9076
4434 0004548 	addi	%r1, %r0, 1
4435 000454c 	jr	%r31
4436 0004550 beq_else.9076:
4436 0004550 	addi	%r1, %r0, 0
4437 0004554 	jr	%r31
4438 0004558 is_second_outside.2918:
4438 0004558 	sw	%r1, 0(%r30)
4439 000455c 	sw	%r31, 1(%r30)
4440 0004560 	addi	%r30, %r30, 2
4441 0004564 	jal	quadratic.2826
4442 0004568 	addi	%r30, %r30, -2
4443 000456c 	lw	%r31, 1(%r30)
4444 0004570 	lw	%r1, 0(%r30)
4445 0004574 	sw.s	%f0, 1(%r30)
4446 0004578 	sw	%r31, 2(%r30)
4447 000457c 	addi	%r30, %r30, 3
4448 0004580 	jal	o_form.2713
4449 0004584 	addi	%r30, %r30, -3
4450 0004588 	lw	%r31, 2(%r30)
4451 000458c 	addi	%r26, %r0, 3
4452 0004590 	bne	%r1, %r26, beq_else.9077
4453 0004594 	la	%r1, l.6407
4455 000459c 	lw.s	%f0, 0(%r1)
4456 00045a0 	lw.s	%f1, 1(%r30)
4457 00045a4 	sub.s	%f0, %f1, %f0
4458 00045a8 	j	beq_cont.9078
4459 00045ac beq_else.9077:
4459 00045ac 	lw.s	%f0, 1(%r30)
4460 00045b0 	mov.s	%f0, %f0
4461 00045b4 beq_cont.9078:
4461 00045b4 	lw	%r1, 0(%r30)
4462 00045b8 	sw.s	%f0, 2(%r30)
4463 00045bc 	sw	%r31, 3(%r30)
4464 00045c0 	addi	%r30, %r30, 4
4465 00045c4 	jal	o_isinvert.2717
4466 00045c8 	addi	%r30, %r30, -4
4467 00045cc 	lw	%r31, 3(%r30)
4468 00045d0 	lw.s	%f0, 2(%r30)
4469 00045d4 	sw	%r1, 3(%r30)
4470 00045d8 	sw	%r31, 4(%r30)
4471 00045dc 	addi	%r30, %r30, 5
4472 00045e0 	jal	fisneg.2632
4473 00045e4 	addi	%r30, %r30, -5
4474 00045e8 	lw	%r31, 4(%r30)
4475 00045ec 	addi	%r2, %r1, 0
4476 00045f0 	lw	%r1, 3(%r30)
4477 00045f4 	sw	%r31, 4(%r30)
4478 00045f8 	addi	%r30, %r30, 5
4479 00045fc 	jal	xor.2654
4480 0004600 	addi	%r30, %r30, -5
4481 0004604 	lw	%r31, 4(%r30)
4482 0004608 	addi	%r26, %r0, 0
4483 000460c 	bne	%r1, %r26, beq_else.9079
4484 0004610 	addi	%r1, %r0, 1
4485 0004614 	jr	%r31
4486 0004618 beq_else.9079:
4486 0004618 	addi	%r1, %r0, 0
4487 000461c 	jr	%r31
4488 0004620 is_outside.2923:
4488 0004620 	sw.s	%f2, 0(%r30)
4489 0004624 	sw.s	%f1, 1(%r30)
4490 0004628 	sw	%r1, 2(%r30)
4491 000462c 	sw.s	%f0, 3(%r30)
4492 0004630 	sw	%r31, 4(%r30)
4493 0004634 	addi	%r30, %r30, 5
4494 0004638 	jal	o_param_x.2729
4495 000463c 	addi	%r30, %r30, -5
4496 0004640 	lw	%r31, 4(%r30)
4497 0004644 	lw.s	%f1, 3(%r30)
4498 0004648 	sub.s	%f0, %f1, %f0
4499 000464c 	lw	%r1, 2(%r30)
4500 0004650 	sw.s	%f0, 4(%r30)
4501 0004654 	sw	%r31, 5(%r30)
4502 0004658 	addi	%r30, %r30, 6
4503 000465c 	jal	o_param_y.2731
4504 0004660 	addi	%r30, %r30, -6
4505 0004664 	lw	%r31, 5(%r30)
4506 0004668 	lw.s	%f1, 1(%r30)
4507 000466c 	sub.s	%f0, %f1, %f0
4508 0004670 	lw	%r1, 2(%r30)
4509 0004674 	sw.s	%f0, 5(%r30)
4510 0004678 	sw	%r31, 6(%r30)
4511 000467c 	addi	%r30, %r30, 7
4512 0004680 	jal	o_param_z.2733
4513 0004684 	addi	%r30, %r30, -7
4514 0004688 	lw	%r31, 6(%r30)
4515 000468c 	lw.s	%f1, 0(%r30)
4516 0004690 	sub.s	%f0, %f1, %f0
4517 0004694 	lw	%r1, 2(%r30)
4518 0004698 	sw.s	%f0, 6(%r30)
4519 000469c 	sw	%r31, 7(%r30)
4520 00046a0 	addi	%r30, %r30, 8
4521 00046a4 	jal	o_form.2713
4522 00046a8 	addi	%r30, %r30, -8
4523 00046ac 	lw	%r31, 7(%r30)
4524 00046b0 	addi	%r26, %r0, 1
4525 00046b4 	bne	%r1, %r26, beq_else.9080
4526 00046b8 	lw.s	%f0, 4(%r30)
4527 00046bc 	lw.s	%f1, 5(%r30)
4528 00046c0 	lw.s	%f2, 6(%r30)
4529 00046c4 	lw	%r1, 2(%r30)
4530 00046c8 	j	is_rect_outside.2908
4531 00046cc beq_else.9080:
4531 00046cc 	addi	%r26, %r0, 2
4532 00046d0 	bne	%r1, %r26, beq_else.9081
4533 00046d4 	lw.s	%f0, 4(%r30)
4534 00046d8 	lw.s	%f1, 5(%r30)
4535 00046dc 	lw.s	%f2, 6(%r30)
4536 00046e0 	lw	%r1, 2(%r30)
4537 00046e4 	j	is_plane_outside.2913
4538 00046e8 beq_else.9081:
4538 00046e8 	lw.s	%f0, 4(%r30)
4539 00046ec 	lw.s	%f1, 5(%r30)
4540 00046f0 	lw.s	%f2, 6(%r30)
4541 00046f4 	lw	%r1, 2(%r30)
4542 00046f8 	j	is_second_outside.2918
4543 00046fc check_all_inside.2928:
4543 00046fc 	add	%r3, %r2, %r1
4544 0004700 	lw	%r3, 0(%r3)
4545 0004704 	la	%r4, const_array.6361
4547 000470c 	addi	%r26, %r0, -1
4548 0004710 	bne	%r3, %r26, beq_else.9082
4549 0004714 	addi	%r1, %r0, 1
4550 0004718 	jr	%r31
4551 000471c beq_else.9082:
4551 000471c 	add	%r3, %r4, %r3
4552 0004720 	lw	%r3, 0(%r3)
4553 0004724 	sw.s	%f2, 0(%r30)
4554 0004728 	sw.s	%f1, 1(%r30)
4555 000472c 	sw.s	%f0, 2(%r30)
4556 0004730 	sw	%r2, 3(%r30)
4557 0004734 	sw	%r1, 4(%r30)
4558 0004738 	addi	%r1, %r3, 0
4559 000473c 	sw	%r31, 5(%r30)
4560 0004740 	addi	%r30, %r30, 6
4561 0004744 	jal	is_outside.2923
4562 0004748 	addi	%r30, %r30, -6
4563 000474c 	lw	%r31, 5(%r30)
4564 0004750 	addi	%r26, %r0, 0
4565 0004754 	bne	%r1, %r26, beq_else.9083
4566 0004758 	lw	%r1, 4(%r30)
4567 000475c 	addi	%r1, %r1, 1
4568 0004760 	lw.s	%f0, 2(%r30)
4569 0004764 	lw.s	%f1, 1(%r30)
4570 0004768 	lw.s	%f2, 0(%r30)
4571 000476c 	lw	%r2, 3(%r30)
4572 0004770 	j	check_all_inside.2928
4573 0004774 beq_else.9083:
4573 0004774 	addi	%r1, %r0, 0
4574 0004778 	jr	%r31
4575 000477c shadow_check_and_group.2934:
4575 000477c 	add	%r3, %r2, %r1
4576 0004780 	lw	%r3, 0(%r3)
4577 0004784 	la	%r4, const_array.6368
4579 000478c 	la	%r5, const_array.6361
4581 0004794 	la	%r6, const_tuple.6394
4583 000479c 	la	%r7, const_array.6364
4585 00047a4 	la	%r8, const_array.6371
4587 00047ac 	addi	%r26, %r0, -1
4588 00047b0 	bne	%r3, %r26, beq_else.9084
4589 00047b4 	addi	%r1, %r0, 0
4590 00047b8 	jr	%r31
4591 00047bc beq_else.9084:
4591 00047bc 	add	%r3, %r2, %r1
4592 00047c0 	lw	%r3, 0(%r3)
4593 00047c4 	sw	%r8, 0(%r30)
4594 00047c8 	sw	%r7, 1(%r30)
4595 00047cc 	sw	%r2, 2(%r30)
4596 00047d0 	sw	%r1, 3(%r30)
4597 00047d4 	sw	%r3, 4(%r30)
4598 00047d8 	sw	%r5, 5(%r30)
4599 00047dc 	sw	%r4, 6(%r30)
4600 00047e0 	addi	%r2, %r6, 0
4601 00047e4 	addi	%r1, %r3, 0
4602 00047e8 	addi	%r3, %r8, 0
4603 00047ec 	sw	%r31, 7(%r30)
4604 00047f0 	addi	%r30, %r30, 8
4605 00047f4 	jal	solver_fast.2868
4606 00047f8 	addi	%r30, %r30, -8
4607 00047fc 	lw	%r31, 7(%r30)
4608 0004800 	lw	%r2, 6(%r30)
4609 0004804 	addi	%r2, %r2, 0
4610 0004808 	lw.s	%f0, 0(%r2)
4611 000480c 	sw.s	%f0, 7(%r30)
4612 0004810 	addi	%r26, %r0, 0
4613 0004814 	bne	%r1, %r26, beq_else.9085
4614 0004818 	addi	%r1, %r0, 0
4615 000481c 	j	beq_cont.9086
4616 0004820 beq_else.9085:
4616 0004820 	la	%r1, l.6860
4618 0004828 	lw.s	%f1, 0(%r1)
4619 000482c 	sw	%r31, 8(%r30)
4620 0004830 	addi	%r30, %r30, 9
4621 0004834 	jal	fless.2627
4622 0004838 	addi	%r30, %r30, -9
4623 000483c 	lw	%r31, 8(%r30)
4624 0004840 beq_cont.9086:
4624 0004840 	addi	%r26, %r0, 0
4625 0004844 	bne	%r1, %r26, beq_else.9087
4626 0004848 	lw	%r1, 4(%r30)
4627 000484c 	lw	%r2, 5(%r30)
4628 0004850 	add	%r1, %r2, %r1
4629 0004854 	lw	%r1, 0(%r1)
4630 0004858 	sw	%r31, 8(%r30)
4631 000485c 	addi	%r30, %r30, 9
4632 0004860 	jal	o_isinvert.2717
4633 0004864 	addi	%r30, %r30, -9
4634 0004868 	lw	%r31, 8(%r30)
4635 000486c 	addi	%r26, %r0, 0
4636 0004870 	bne	%r1, %r26, beq_else.9088
4637 0004874 	addi	%r1, %r0, 0
4638 0004878 	jr	%r31
4639 000487c beq_else.9088:
4639 000487c 	lw	%r1, 3(%r30)
4640 0004880 	addi	%r1, %r1, 1
4641 0004884 	lw	%r2, 2(%r30)
4642 0004888 	j	shadow_check_and_group.2934
4643 000488c beq_else.9087:
4643 000488c 	la	%r1, l.6862
4645 0004894 	lw.s	%f0, 0(%r1)
4646 0004898 	lw.s	%f1, 7(%r30)
4647 000489c 	add.s	%f0, %f1, %f0
4648 00048a0 	lw	%r1, 1(%r30)
4649 00048a4 	addi	%r2, %r1, 0
4650 00048a8 	lw.s	%f1, 0(%r2)
4651 00048ac 	mul.s	%f1, %f1, %f0
4652 00048b0 	lw	%r2, 0(%r30)
4653 00048b4 	addi	%r3, %r2, 0
4654 00048b8 	lw.s	%f2, 0(%r3)
4655 00048bc 	add.s	%f1, %f1, %f2
4656 00048c0 	addi	%r3, %r1, 1
4657 00048c4 	lw.s	%f2, 0(%r3)
4658 00048c8 	mul.s	%f2, %f2, %f0
4659 00048cc 	addi	%r3, %r2, 1
4660 00048d0 	lw.s	%f3, 0(%r3)
4661 00048d4 	add.s	%f2, %f2, %f3
4662 00048d8 	addi	%r1, %r1, 2
4663 00048dc 	lw.s	%f3, 0(%r1)
4664 00048e0 	mul.s	%f0, %f3, %f0
4665 00048e4 	addi	%r1, %r2, 2
4666 00048e8 	lw.s	%f3, 0(%r1)
4667 00048ec 	add.s	%f0, %f0, %f3
4668 00048f0 	addi	%r1, %r0, 0
4669 00048f4 	lw	%r2, 2(%r30)
4670 00048f8 	mov.s	%f31, %f2
4671 00048fc 	mov.s	%f2, %f0
4672 0004900 	mov.s	%f0, %f1
4673 0004904 	mov.s	%f1, %f31
4674 0004908 	sw	%r31, 8(%r30)
4675 000490c 	addi	%r30, %r30, 9
4676 0004910 	jal	check_all_inside.2928
4677 0004914 	addi	%r30, %r30, -9
4678 0004918 	lw	%r31, 8(%r30)
4679 000491c 	addi	%r26, %r0, 0
4680 0004920 	bne	%r1, %r26, beq_else.9089
4681 0004924 	lw	%r1, 3(%r30)
4682 0004928 	addi	%r1, %r1, 1
4683 000492c 	lw	%r2, 2(%r30)
4684 0004930 	j	shadow_check_and_group.2934
4685 0004934 beq_else.9089:
4685 0004934 	addi	%r1, %r0, 1
4686 0004938 	jr	%r31
4687 000493c shadow_check_one_or_group.2937:
4687 000493c 	add	%r3, %r2, %r1
4688 0004940 	lw	%r3, 0(%r3)
4689 0004944 	la	%r4, const_array.6367
4691 000494c 	addi	%r26, %r0, -1
4692 0004950 	bne	%r3, %r26, beq_else.9090
4693 0004954 	addi	%r1, %r0, 0
4694 0004958 	jr	%r31
4695 000495c beq_else.9090:
4695 000495c 	add	%r3, %r4, %r3
4696 0004960 	lw	%r3, 0(%r3)
4697 0004964 	addi	%r4, %r0, 0
4698 0004968 	sw	%r2, 0(%r30)
4699 000496c 	sw	%r1, 1(%r30)
4700 0004970 	addi	%r2, %r3, 0
4701 0004974 	addi	%r1, %r4, 0
4702 0004978 	sw	%r31, 2(%r30)
4703 000497c 	addi	%r30, %r30, 3
4704 0004980 	jal	shadow_check_and_group.2934
4705 0004984 	addi	%r30, %r30, -3
4706 0004988 	lw	%r31, 2(%r30)
4707 000498c 	addi	%r26, %r0, 0
4708 0004990 	bne	%r1, %r26, beq_else.9091
4709 0004994 	lw	%r1, 1(%r30)
4710 0004998 	addi	%r1, %r1, 1
4711 000499c 	lw	%r2, 0(%r30)
4712 00049a0 	j	shadow_check_one_or_group.2937
4713 00049a4 beq_else.9091:
4713 00049a4 	addi	%r1, %r0, 1
4714 00049a8 	jr	%r31
4715 00049ac shadow_check_one_or_matrix.2940:
4715 00049ac 	add	%r3, %r2, %r1
4716 00049b0 	lw	%r3, 0(%r3)
4717 00049b4 	addi	%r4, %r3, 0
4718 00049b8 	lw	%r4, 0(%r4)
4719 00049bc 	la	%r5, const_array.6368
4721 00049c4 	la	%r6, const_tuple.6394
4723 00049cc 	la	%r7, const_array.6371
4725 00049d4 	addi	%r26, %r0, -1
4726 00049d8 	bne	%r4, %r26, beq_else.9092
4727 00049dc 	addi	%r1, %r0, 0
4728 00049e0 	jr	%r31
4729 00049e4 beq_else.9092:
4729 00049e4 	sw	%r3, 0(%r30)
4730 00049e8 	sw	%r2, 1(%r30)
4731 00049ec 	sw	%r1, 2(%r30)
4732 00049f0 	addi	%r26, %r0, 99
4733 00049f4 	bne	%r4, %r26, beq_else.9093
4734 00049f8 	addi	%r1, %r0, 1
4735 00049fc 	j	beq_cont.9094
4736 0004a00 beq_else.9093:
4736 0004a00 	sw	%r5, 3(%r30)
4737 0004a04 	addi	%r3, %r7, 0
4738 0004a08 	addi	%r2, %r6, 0
4739 0004a0c 	addi	%r1, %r4, 0
4740 0004a10 	sw	%r31, 4(%r30)
4741 0004a14 	addi	%r30, %r30, 5
4742 0004a18 	jal	solver_fast.2868
4743 0004a1c 	addi	%r30, %r30, -5
4744 0004a20 	lw	%r31, 4(%r30)
4745 0004a24 	addi	%r26, %r0, 0
4746 0004a28 	bne	%r1, %r26, beq_else.9095
4747 0004a2c 	addi	%r1, %r0, 0
4748 0004a30 	j	beq_cont.9096
4749 0004a34 beq_else.9095:
4749 0004a34 	lw	%r1, 3(%r30)
4750 0004a38 	addi	%r1, %r1, 0
4751 0004a3c 	lw.s	%f0, 0(%r1)
4752 0004a40 	la	%r1, l.6876
4754 0004a48 	lw.s	%f1, 0(%r1)
4755 0004a4c 	sw	%r31, 4(%r30)
4756 0004a50 	addi	%r30, %r30, 5
4757 0004a54 	jal	fless.2627
4758 0004a58 	addi	%r30, %r30, -5
4759 0004a5c 	lw	%r31, 4(%r30)
4760 0004a60 	addi	%r26, %r0, 0
4761 0004a64 	bne	%r1, %r26, beq_else.9097
4762 0004a68 	addi	%r1, %r0, 0
4763 0004a6c 	j	beq_cont.9098
4764 0004a70 beq_else.9097:
4764 0004a70 	addi	%r1, %r0, 1
4765 0004a74 	lw	%r2, 0(%r30)
4766 0004a78 	sw	%r31, 4(%r30)
4767 0004a7c 	addi	%r30, %r30, 5
4768 0004a80 	jal	shadow_check_one_or_group.2937
4769 0004a84 	addi	%r30, %r30, -5
4770 0004a88 	lw	%r31, 4(%r30)
4771 0004a8c 	addi	%r26, %r0, 0
4772 0004a90 	bne	%r1, %r26, beq_else.9099
4773 0004a94 	addi	%r1, %r0, 0
4774 0004a98 	j	beq_cont.9100
4775 0004a9c beq_else.9099:
4775 0004a9c 	addi	%r1, %r0, 1
4776 0004aa0 beq_cont.9100:
4776 0004aa0 beq_cont.9098:
4776 0004aa0 beq_cont.9096:
4776 0004aa0 beq_cont.9094:
4776 0004aa0 	addi	%r26, %r0, 0
4777 0004aa4 	bne	%r1, %r26, beq_else.9101
4778 0004aa8 	lw	%r1, 2(%r30)
4779 0004aac 	addi	%r1, %r1, 1
4780 0004ab0 	lw	%r2, 1(%r30)
4781 0004ab4 	j	shadow_check_one_or_matrix.2940
4782 0004ab8 beq_else.9101:
4782 0004ab8 	addi	%r1, %r0, 1
4783 0004abc 	lw	%r2, 0(%r30)
4784 0004ac0 	sw	%r31, 4(%r30)
4785 0004ac4 	addi	%r30, %r30, 5
4786 0004ac8 	jal	shadow_check_one_or_group.2937
4787 0004acc 	addi	%r30, %r30, -5
4788 0004ad0 	lw	%r31, 4(%r30)
4789 0004ad4 	addi	%r26, %r0, 0
4790 0004ad8 	bne	%r1, %r26, beq_else.9102
4791 0004adc 	lw	%r1, 2(%r30)
4792 0004ae0 	addi	%r1, %r1, 1
4793 0004ae4 	lw	%r2, 1(%r30)
4794 0004ae8 	j	shadow_check_one_or_matrix.2940
4795 0004aec beq_else.9102:
4795 0004aec 	addi	%r1, %r0, 1
4796 0004af0 	jr	%r31
4797 0004af4 solve_each_element.2943:
4797 0004af4 	add	%r4, %r2, %r1
4798 0004af8 	lw	%r4, 0(%r4)
4799 0004afc 	la	%r5, const_array.6370
4801 0004b04 	la	%r6, const_array.6380
4803 0004b0c 	la	%r7, const_array.6368
4805 0004b14 	la	%r8, const_array.6361
4807 0004b1c 	la	%r9, const_array.6369
4809 0004b24 	la	%r10, const_array.6371
4811 0004b2c 	la	%r11, const_array.6372
4813 0004b34 	addi	%r26, %r0, -1
4814 0004b38 	bne	%r4, %r26, beq_else.9103
4815 0004b3c 	jr	%r31
4816 0004b40 beq_else.9103:
4816 0004b40 	sw	%r9, 0(%r30)
4817 0004b44 	sw	%r11, 1(%r30)
4818 0004b48 	sw	%r10, 2(%r30)
4819 0004b4c 	sw	%r6, 3(%r30)
4820 0004b50 	sw	%r5, 4(%r30)
4821 0004b54 	sw	%r7, 5(%r30)
4822 0004b58 	sw	%r3, 6(%r30)
4823 0004b5c 	sw	%r2, 7(%r30)
4824 0004b60 	sw	%r1, 8(%r30)
4825 0004b64 	sw	%r4, 9(%r30)
4826 0004b68 	sw	%r8, 10(%r30)
4827 0004b6c 	addi	%r2, %r3, 0
4828 0004b70 	addi	%r1, %r4, 0
4829 0004b74 	addi	%r3, %r6, 0
4830 0004b78 	sw	%r31, 11(%r30)
4831 0004b7c 	addi	%r30, %r30, 12
4832 0004b80 	jal	solver.2845
4833 0004b84 	addi	%r30, %r30, -12
4834 0004b88 	lw	%r31, 11(%r30)
4835 0004b8c 	addi	%r26, %r0, 0
4836 0004b90 	bne	%r1, %r26, beq_else.9105
4837 0004b94 	lw	%r1, 9(%r30)
4838 0004b98 	lw	%r2, 10(%r30)
4839 0004b9c 	add	%r1, %r2, %r1
4840 0004ba0 	lw	%r1, 0(%r1)
4841 0004ba4 	sw	%r31, 11(%r30)
4842 0004ba8 	addi	%r30, %r30, 12
4843 0004bac 	jal	o_isinvert.2717
4844 0004bb0 	addi	%r30, %r30, -12
4845 0004bb4 	lw	%r31, 11(%r30)
4846 0004bb8 	addi	%r26, %r0, 0
4847 0004bbc 	bne	%r1, %r26, beq_else.9106
4848 0004bc0 	jr	%r31
4849 0004bc4 beq_else.9106:
4849 0004bc4 	lw	%r1, 8(%r30)
4850 0004bc8 	addi	%r1, %r1, 1
4851 0004bcc 	lw	%r2, 7(%r30)
4852 0004bd0 	lw	%r3, 6(%r30)
4853 0004bd4 	j	solve_each_element.2943
4854 0004bd8 beq_else.9105:
4854 0004bd8 	lw	%r2, 5(%r30)
4855 0004bdc 	addi	%r2, %r2, 0
4856 0004be0 	lw.s	%f1, 0(%r2)
4857 0004be4 	la	%r2, l.6401
4859 0004bec 	lw.s	%f0, 0(%r2)
4860 0004bf0 	sw	%r1, 11(%r30)
4861 0004bf4 	sw.s	%f1, 12(%r30)
4862 0004bf8 	sw	%r31, 13(%r30)
4863 0004bfc 	addi	%r30, %r30, 14
4864 0004c00 	jal	fless.2627
4865 0004c04 	addi	%r30, %r30, -14
4866 0004c08 	lw	%r31, 13(%r30)
4867 0004c0c 	addi	%r26, %r0, 0
4868 0004c10 	bne	%r1, %r26, beq_else.9108
4869 0004c14 	j	beq_cont.9109
4870 0004c18 beq_else.9108:
4870 0004c18 	lw	%r1, 4(%r30)
4871 0004c1c 	addi	%r2, %r1, 0
4872 0004c20 	lw.s	%f1, 0(%r2)
4873 0004c24 	lw.s	%f0, 12(%r30)
4874 0004c28 	sw	%r31, 13(%r30)
4875 0004c2c 	addi	%r30, %r30, 14
4876 0004c30 	jal	fless.2627
4877 0004c34 	addi	%r30, %r30, -14
4878 0004c38 	lw	%r31, 13(%r30)
4879 0004c3c 	addi	%r26, %r0, 0
4880 0004c40 	bne	%r1, %r26, beq_else.9110
4881 0004c44 	j	beq_cont.9111
4882 0004c48 beq_else.9110:
4882 0004c48 	la	%r1, l.6862
4884 0004c50 	lw.s	%f0, 0(%r1)
4885 0004c54 	lw.s	%f1, 12(%r30)
4886 0004c58 	add.s	%f0, %f1, %f0
4887 0004c5c 	lw	%r1, 6(%r30)
4888 0004c60 	addi	%r2, %r1, 0
4889 0004c64 	lw.s	%f1, 0(%r2)
4890 0004c68 	mul.s	%f1, %f1, %f0
4891 0004c6c 	lw	%r2, 3(%r30)
4892 0004c70 	addi	%r3, %r2, 0
4893 0004c74 	lw.s	%f2, 0(%r3)
4894 0004c78 	add.s	%f1, %f1, %f2
4895 0004c7c 	addi	%r3, %r1, 1
4896 0004c80 	lw.s	%f2, 0(%r3)
4897 0004c84 	mul.s	%f2, %f2, %f0
4898 0004c88 	addi	%r3, %r2, 1
4899 0004c8c 	lw.s	%f3, 0(%r3)
4900 0004c90 	add.s	%f2, %f2, %f3
4901 0004c94 	addi	%r3, %r1, 2
4902 0004c98 	lw.s	%f3, 0(%r3)
4903 0004c9c 	mul.s	%f3, %f3, %f0
4904 0004ca0 	addi	%r2, %r2, 2
4905 0004ca4 	lw.s	%f4, 0(%r2)
4906 0004ca8 	add.s	%f3, %f3, %f4
4907 0004cac 	addi	%r2, %r0, 0
4908 0004cb0 	lw	%r3, 7(%r30)
4909 0004cb4 	sw.s	%f3, 13(%r30)
4910 0004cb8 	sw.s	%f2, 14(%r30)
4911 0004cbc 	sw.s	%f1, 15(%r30)
4912 0004cc0 	sw.s	%f0, 16(%r30)
4913 0004cc4 	addi	%r1, %r2, 0
4914 0004cc8 	addi	%r2, %r3, 0
4915 0004ccc 	mov.s	%f0, %f1
4916 0004cd0 	mov.s	%f1, %f2
4917 0004cd4 	mov.s	%f2, %f3
4918 0004cd8 	sw	%r31, 17(%r30)
4919 0004cdc 	addi	%r30, %r30, 18
4920 0004ce0 	jal	check_all_inside.2928
4921 0004ce4 	addi	%r30, %r30, -18
4922 0004ce8 	lw	%r31, 17(%r30)
4923 0004cec 	addi	%r26, %r0, 0
4924 0004cf0 	bne	%r1, %r26, beq_else.9112
4925 0004cf4 	j	beq_cont.9113
4926 0004cf8 beq_else.9112:
4926 0004cf8 	lw	%r1, 4(%r30)
4927 0004cfc 	addi	%r1, %r1, 0
4928 0004d00 	lw.s	%f0, 16(%r30)
4929 0004d04 	sw.s	%f0, 0(%r1)
4930 0004d08 	lw.s	%f0, 15(%r30)
4931 0004d0c 	lw.s	%f1, 14(%r30)
4932 0004d10 	lw.s	%f2, 13(%r30)
4933 0004d14 	lw	%r1, 2(%r30)
4934 0004d18 	sw	%r31, 17(%r30)
4935 0004d1c 	addi	%r30, %r30, 18
4936 0004d20 	jal	vecset.2665
4937 0004d24 	addi	%r30, %r30, -18
4938 0004d28 	lw	%r31, 17(%r30)
4939 0004d2c 	lw	%r1, 1(%r30)
4940 0004d30 	addi	%r1, %r1, 0
4941 0004d34 	lw	%r2, 9(%r30)
4942 0004d38 	sw	%r2, 0(%r1)
4943 0004d3c 	lw	%r1, 0(%r30)
4944 0004d40 	addi	%r1, %r1, 0
4945 0004d44 	lw	%r2, 11(%r30)
4946 0004d48 	sw	%r2, 0(%r1)
4947 0004d4c beq_cont.9113:
4947 0004d4c beq_cont.9111:
4947 0004d4c beq_cont.9109:
4947 0004d4c 	lw	%r1, 8(%r30)
4948 0004d50 	addi	%r1, %r1, 1
4949 0004d54 	lw	%r2, 7(%r30)
4950 0004d58 	lw	%r3, 6(%r30)
4951 0004d5c 	j	solve_each_element.2943
4952 0004d60 solve_one_or_network.2947:
4952 0004d60 	add	%r4, %r2, %r1
4953 0004d64 	lw	%r4, 0(%r4)
4954 0004d68 	la	%r5, const_array.6367
4956 0004d70 	addi	%r26, %r0, -1
4957 0004d74 	bne	%r4, %r26, beq_else.9114
4958 0004d78 	jr	%r31
4959 0004d7c beq_else.9114:
4959 0004d7c 	add	%r4, %r5, %r4
4960 0004d80 	lw	%r4, 0(%r4)
4961 0004d84 	addi	%r5, %r0, 0
4962 0004d88 	sw	%r3, 0(%r30)
4963 0004d8c 	sw	%r2, 1(%r30)
4964 0004d90 	sw	%r1, 2(%r30)
4965 0004d94 	addi	%r2, %r4, 0
4966 0004d98 	addi	%r1, %r5, 0
4967 0004d9c 	sw	%r31, 3(%r30)
4968 0004da0 	addi	%r30, %r30, 4
4969 0004da4 	jal	solve_each_element.2943
4970 0004da8 	addi	%r30, %r30, -4
4971 0004dac 	lw	%r31, 3(%r30)
4972 0004db0 	lw	%r1, 2(%r30)
4973 0004db4 	addi	%r1, %r1, 1
4974 0004db8 	lw	%r2, 1(%r30)
4975 0004dbc 	lw	%r3, 0(%r30)
4976 0004dc0 	j	solve_one_or_network.2947
4977 0004dc4 trace_or_matrix.2951:
4977 0004dc4 	add	%r4, %r2, %r1
4978 0004dc8 	lw	%r4, 0(%r4)
4979 0004dcc 	addi	%r5, %r4, 0
4980 0004dd0 	lw	%r5, 0(%r5)
4981 0004dd4 	la	%r6, const_array.6370
4983 0004ddc 	la	%r7, const_array.6380
4985 0004de4 	la	%r8, const_array.6368
4987 0004dec 	addi	%r26, %r0, -1
4988 0004df0 	bne	%r5, %r26, beq_else.9116
4989 0004df4 	jr	%r31
4990 0004df8 beq_else.9116:
4990 0004df8 	sw	%r3, 0(%r30)
4991 0004dfc 	sw	%r2, 1(%r30)
4992 0004e00 	sw	%r1, 2(%r30)
4993 0004e04 	addi	%r26, %r0, 99
4994 0004e08 	bne	%r5, %r26, beq_else.9118
4995 0004e0c 	addi	%r5, %r0, 1
4996 0004e10 	addi	%r2, %r4, 0
4997 0004e14 	addi	%r1, %r5, 0
4998 0004e18 	sw	%r31, 3(%r30)
4999 0004e1c 	addi	%r30, %r30, 4
5000 0004e20 	jal	solve_one_or_network.2947
5001 0004e24 	addi	%r30, %r30, -4
5002 0004e28 	lw	%r31, 3(%r30)
5003 0004e2c 	j	beq_cont.9119
5004 0004e30 beq_else.9118:
5004 0004e30 	sw	%r4, 3(%r30)
5005 0004e34 	sw	%r6, 4(%r30)
5006 0004e38 	sw	%r8, 5(%r30)
5007 0004e3c 	addi	%r2, %r3, 0
5008 0004e40 	addi	%r1, %r5, 0
5009 0004e44 	addi	%r3, %r7, 0
5010 0004e48 	sw	%r31, 6(%r30)
5011 0004e4c 	addi	%r30, %r30, 7
5012 0004e50 	jal	solver.2845
5013 0004e54 	addi	%r30, %r30, -7
5014 0004e58 	lw	%r31, 6(%r30)
5015 0004e5c 	addi	%r26, %r0, 0
5016 0004e60 	bne	%r1, %r26, beq_else.9120
5017 0004e64 	j	beq_cont.9121
5018 0004e68 beq_else.9120:
5018 0004e68 	lw	%r1, 5(%r30)
5019 0004e6c 	addi	%r1, %r1, 0
5020 0004e70 	lw.s	%f0, 0(%r1)
5021 0004e74 	lw	%r1, 4(%r30)
5022 0004e78 	addi	%r1, %r1, 0
5023 0004e7c 	lw.s	%f1, 0(%r1)
5024 0004e80 	sw	%r31, 6(%r30)
5025 0004e84 	addi	%r30, %r30, 7
5026 0004e88 	jal	fless.2627
5027 0004e8c 	addi	%r30, %r30, -7
5028 0004e90 	lw	%r31, 6(%r30)
5029 0004e94 	addi	%r26, %r0, 0
5030 0004e98 	bne	%r1, %r26, beq_else.9122
5031 0004e9c 	j	beq_cont.9123
5032 0004ea0 beq_else.9122:
5032 0004ea0 	addi	%r1, %r0, 1
5033 0004ea4 	lw	%r2, 3(%r30)
5034 0004ea8 	lw	%r3, 0(%r30)
5035 0004eac 	sw	%r31, 6(%r30)
5036 0004eb0 	addi	%r30, %r30, 7
5037 0004eb4 	jal	solve_one_or_network.2947
5038 0004eb8 	addi	%r30, %r30, -7
5039 0004ebc 	lw	%r31, 6(%r30)
5040 0004ec0 beq_cont.9123:
5040 0004ec0 beq_cont.9121:
5040 0004ec0 beq_cont.9119:
5040 0004ec0 	lw	%r1, 2(%r30)
5041 0004ec4 	addi	%r1, %r1, 1
5042 0004ec8 	lw	%r2, 1(%r30)
5043 0004ecc 	lw	%r3, 0(%r30)
5044 0004ed0 	j	trace_or_matrix.2951
5045 0004ed4 judge_intersection.2955:
5045 0004ed4 	lw	%r2, 1(%r27)
5046 0004ed8 	la	%r3, l.6899
5048 0004ee0 	lw.s	%f0, 0(%r3)
5049 0004ee4 	la	%r3, const_array.6370
5051 0004eec 	addi	%r4, %r3, 0
5052 0004ef0 	sw.s	%f0, 0(%r4)
5053 0004ef4 	addi	%r4, %r0, 0
5054 0004ef8 	addi	%r2, %r2, 0
5055 0004efc 	lw	%r2, 0(%r2)
5056 0004f00 	sw	%r3, 0(%r30)
5057 0004f04 	addi	%r3, %r1, 0
5058 0004f08 	addi	%r1, %r4, 0
5059 0004f0c 	sw	%r31, 1(%r30)
5060 0004f10 	addi	%r30, %r30, 2
5061 0004f14 	jal	trace_or_matrix.2951
5062 0004f18 	addi	%r30, %r30, -2
5063 0004f1c 	lw	%r31, 1(%r30)
5064 0004f20 	lw	%r1, 0(%r30)
5065 0004f24 	addi	%r1, %r1, 0
5066 0004f28 	lw.s	%f1, 0(%r1)
5067 0004f2c 	la	%r1, l.6876
5069 0004f34 	lw.s	%f0, 0(%r1)
5070 0004f38 	sw.s	%f1, 1(%r30)
5071 0004f3c 	sw	%r31, 2(%r30)
5072 0004f40 	addi	%r30, %r30, 3
5073 0004f44 	jal	fless.2627
5074 0004f48 	addi	%r30, %r30, -3
5075 0004f4c 	lw	%r31, 2(%r30)
5076 0004f50 	addi	%r26, %r0, 0
5077 0004f54 	bne	%r1, %r26, beq_else.9124
5078 0004f58 	addi	%r1, %r0, 0
5079 0004f5c 	jr	%r31
5080 0004f60 beq_else.9124:
5080 0004f60 	la	%r1, l.6905
5082 0004f68 	lw.s	%f1, 0(%r1)
5083 0004f6c 	lw.s	%f0, 1(%r30)
5084 0004f70 	j	fless.2627
5085 0004f74 solve_each_element_fast.2957:
5085 0004f74 	sw	%r2, 0(%r30)
5086 0004f78 	sw	%r1, 1(%r30)
5087 0004f7c 	sw	%r3, 2(%r30)
5088 0004f80 	addi	%r1, %r3, 0
5089 0004f84 	sw	%r31, 3(%r30)
5090 0004f88 	addi	%r30, %r30, 4
5091 0004f8c 	jal	d_vec.2772
5092 0004f90 	addi	%r30, %r30, -4
5093 0004f94 	lw	%r31, 3(%r30)
5094 0004f98 	lw	%r2, 1(%r30)
5095 0004f9c 	lw	%r3, 0(%r30)
5096 0004fa0 	add	%r4, %r3, %r2
5097 0004fa4 	lw	%r4, 0(%r4)
5098 0004fa8 	la	%r5, const_array.6370
5100 0004fb0 	la	%r6, const_array.6381
5102 0004fb8 	la	%r7, const_array.6368
5104 0004fc0 	la	%r8, const_array.6361
5106 0004fc8 	la	%r9, const_array.6369
5108 0004fd0 	la	%r10, const_array.6371
5110 0004fd8 	la	%r11, const_array.6372
5112 0004fe0 	addi	%r26, %r0, -1
5113 0004fe4 	bne	%r4, %r26, beq_else.9125
5114 0004fe8 	jr	%r31
5115 0004fec beq_else.9125:
5115 0004fec 	lw	%r12, 2(%r30)
5116 0004ff0 	sw	%r9, 3(%r30)
5117 0004ff4 	sw	%r11, 4(%r30)
5118 0004ff8 	sw	%r10, 5(%r30)
5119 0004ffc 	sw	%r6, 6(%r30)
5120 0005000 	sw	%r1, 7(%r30)
5121 0005004 	sw	%r5, 8(%r30)
5122 0005008 	sw	%r7, 9(%r30)
5123 000500c 	sw	%r4, 10(%r30)
5124 0005010 	sw	%r8, 11(%r30)
5125 0005014 	addi	%r2, %r12, 0
5126 0005018 	addi	%r1, %r4, 0
5127 000501c 	sw	%r31, 12(%r30)
5128 0005020 	addi	%r30, %r30, 13
5129 0005024 	jal	solver_fast2.2886
5130 0005028 	addi	%r30, %r30, -13
5131 000502c 	lw	%r31, 12(%r30)
5132 0005030 	addi	%r26, %r0, 0
5133 0005034 	bne	%r1, %r26, beq_else.9127
5134 0005038 	lw	%r1, 10(%r30)
5135 000503c 	lw	%r2, 11(%r30)
5136 0005040 	add	%r1, %r2, %r1
5137 0005044 	lw	%r1, 0(%r1)
5138 0005048 	sw	%r31, 12(%r30)
5139 000504c 	addi	%r30, %r30, 13
5140 0005050 	jal	o_isinvert.2717
5141 0005054 	addi	%r30, %r30, -13
5142 0005058 	lw	%r31, 12(%r30)
5143 000505c 	addi	%r26, %r0, 0
5144 0005060 	bne	%r1, %r26, beq_else.9128
5145 0005064 	jr	%r31
5146 0005068 beq_else.9128:
5146 0005068 	lw	%r1, 1(%r30)
5147 000506c 	addi	%r1, %r1, 1
5148 0005070 	lw	%r2, 0(%r30)
5149 0005074 	lw	%r3, 2(%r30)
5150 0005078 	j	solve_each_element_fast.2957
5151 000507c beq_else.9127:
5151 000507c 	lw	%r2, 9(%r30)
5152 0005080 	addi	%r2, %r2, 0
5153 0005084 	lw.s	%f1, 0(%r2)
5154 0005088 	la	%r2, l.6401
5156 0005090 	lw.s	%f0, 0(%r2)
5157 0005094 	sw	%r1, 12(%r30)
5158 0005098 	sw.s	%f1, 13(%r30)
5159 000509c 	sw	%r31, 14(%r30)
5160 00050a0 	addi	%r30, %r30, 15
5161 00050a4 	jal	fless.2627
5162 00050a8 	addi	%r30, %r30, -15
5163 00050ac 	lw	%r31, 14(%r30)
5164 00050b0 	addi	%r26, %r0, 0
5165 00050b4 	bne	%r1, %r26, beq_else.9130
5166 00050b8 	j	beq_cont.9131
5167 00050bc beq_else.9130:
5167 00050bc 	lw	%r1, 8(%r30)
5168 00050c0 	addi	%r2, %r1, 0
5169 00050c4 	lw.s	%f1, 0(%r2)
5170 00050c8 	lw.s	%f0, 13(%r30)
5171 00050cc 	sw	%r31, 14(%r30)
5172 00050d0 	addi	%r30, %r30, 15
5173 00050d4 	jal	fless.2627
5174 00050d8 	addi	%r30, %r30, -15
5175 00050dc 	lw	%r31, 14(%r30)
5176 00050e0 	addi	%r26, %r0, 0
5177 00050e4 	bne	%r1, %r26, beq_else.9132
5178 00050e8 	j	beq_cont.9133
5179 00050ec beq_else.9132:
5179 00050ec 	la	%r1, l.6862
5181 00050f4 	lw.s	%f0, 0(%r1)
5182 00050f8 	lw.s	%f1, 13(%r30)
5183 00050fc 	add.s	%f0, %f1, %f0
5184 0005100 	lw	%r1, 7(%r30)
5185 0005104 	addi	%r2, %r1, 0
5186 0005108 	lw.s	%f1, 0(%r2)
5187 000510c 	mul.s	%f1, %f1, %f0
5188 0005110 	lw	%r2, 6(%r30)
5189 0005114 	addi	%r3, %r2, 0
5190 0005118 	lw.s	%f2, 0(%r3)
5191 000511c 	add.s	%f1, %f1, %f2
5192 0005120 	addi	%r3, %r1, 1
5193 0005124 	lw.s	%f2, 0(%r3)
5194 0005128 	mul.s	%f2, %f2, %f0
5195 000512c 	addi	%r3, %r2, 1
5196 0005130 	lw.s	%f3, 0(%r3)
5197 0005134 	add.s	%f2, %f2, %f3
5198 0005138 	addi	%r1, %r1, 2
5199 000513c 	lw.s	%f3, 0(%r1)
5200 0005140 	mul.s	%f3, %f3, %f0
5201 0005144 	addi	%r1, %r2, 2
5202 0005148 	lw.s	%f4, 0(%r1)
5203 000514c 	add.s	%f3, %f3, %f4
5204 0005150 	addi	%r1, %r0, 0
5205 0005154 	lw	%r2, 0(%r30)
5206 0005158 	sw.s	%f3, 14(%r30)
5207 000515c 	sw.s	%f2, 15(%r30)
5208 0005160 	sw.s	%f1, 16(%r30)
5209 0005164 	sw.s	%f0, 17(%r30)
5210 0005168 	mov.s	%f0, %f1
5211 000516c 	mov.s	%f1, %f2
5212 0005170 	mov.s	%f2, %f3
5213 0005174 	sw	%r31, 18(%r30)
5214 0005178 	addi	%r30, %r30, 19
5215 000517c 	jal	check_all_inside.2928
5216 0005180 	addi	%r30, %r30, -19
5217 0005184 	lw	%r31, 18(%r30)
5218 0005188 	addi	%r26, %r0, 0
5219 000518c 	bne	%r1, %r26, beq_else.9134
5220 0005190 	j	beq_cont.9135
5221 0005194 beq_else.9134:
5221 0005194 	lw	%r1, 8(%r30)
5222 0005198 	addi	%r1, %r1, 0
5223 000519c 	lw.s	%f0, 17(%r30)
5224 00051a0 	sw.s	%f0, 0(%r1)
5225 00051a4 	lw.s	%f0, 16(%r30)
5226 00051a8 	lw.s	%f1, 15(%r30)
5227 00051ac 	lw.s	%f2, 14(%r30)
5228 00051b0 	lw	%r1, 5(%r30)
5229 00051b4 	sw	%r31, 18(%r30)
5230 00051b8 	addi	%r30, %r30, 19
5231 00051bc 	jal	vecset.2665
5232 00051c0 	addi	%r30, %r30, -19
5233 00051c4 	lw	%r31, 18(%r30)
5234 00051c8 	lw	%r1, 4(%r30)
5235 00051cc 	addi	%r1, %r1, 0
5236 00051d0 	lw	%r2, 10(%r30)
5237 00051d4 	sw	%r2, 0(%r1)
5238 00051d8 	lw	%r1, 3(%r30)
5239 00051dc 	addi	%r1, %r1, 0
5240 00051e0 	lw	%r2, 12(%r30)
5241 00051e4 	sw	%r2, 0(%r1)
5242 00051e8 beq_cont.9135:
5242 00051e8 beq_cont.9133:
5242 00051e8 beq_cont.9131:
5242 00051e8 	lw	%r1, 1(%r30)
5243 00051ec 	addi	%r1, %r1, 1
5244 00051f0 	lw	%r2, 0(%r30)
5245 00051f4 	lw	%r3, 2(%r30)
5246 00051f8 	j	solve_each_element_fast.2957
5247 00051fc solve_one_or_network_fast.2961:
5247 00051fc 	add	%r4, %r2, %r1
5248 0005200 	lw	%r4, 0(%r4)
5249 0005204 	la	%r5, const_array.6367
5251 000520c 	addi	%r26, %r0, -1
5252 0005210 	bne	%r4, %r26, beq_else.9136
5253 0005214 	jr	%r31
5254 0005218 beq_else.9136:
5254 0005218 	add	%r4, %r5, %r4
5255 000521c 	lw	%r4, 0(%r4)
5256 0005220 	addi	%r5, %r0, 0
5257 0005224 	sw	%r3, 0(%r30)
5258 0005228 	sw	%r2, 1(%r30)
5259 000522c 	sw	%r1, 2(%r30)
5260 0005230 	addi	%r2, %r4, 0
5261 0005234 	addi	%r1, %r5, 0
5262 0005238 	sw	%r31, 3(%r30)
5263 000523c 	addi	%r30, %r30, 4
5264 0005240 	jal	solve_each_element_fast.2957
5265 0005244 	addi	%r30, %r30, -4
5266 0005248 	lw	%r31, 3(%r30)
5267 000524c 	lw	%r1, 2(%r30)
5268 0005250 	addi	%r1, %r1, 1
5269 0005254 	lw	%r2, 1(%r30)
5270 0005258 	lw	%r3, 0(%r30)
5271 000525c 	j	solve_one_or_network_fast.2961
5272 0005260 trace_or_matrix_fast.2965:
5272 0005260 	add	%r4, %r2, %r1
5273 0005264 	lw	%r4, 0(%r4)
5274 0005268 	addi	%r5, %r4, 0
5275 000526c 	lw	%r5, 0(%r5)
5276 0005270 	la	%r6, const_array.6370
5278 0005278 	la	%r7, const_array.6368
5280 0005280 	addi	%r26, %r0, -1
5281 0005284 	bne	%r5, %r26, beq_else.9138
5282 0005288 	jr	%r31
5283 000528c beq_else.9138:
5283 000528c 	sw	%r3, 0(%r30)
5284 0005290 	sw	%r2, 1(%r30)
5285 0005294 	sw	%r1, 2(%r30)
5286 0005298 	addi	%r26, %r0, 99
5287 000529c 	bne	%r5, %r26, beq_else.9140
5288 00052a0 	addi	%r5, %r0, 1
5289 00052a4 	addi	%r2, %r4, 0
5290 00052a8 	addi	%r1, %r5, 0
5291 00052ac 	sw	%r31, 3(%r30)
5292 00052b0 	addi	%r30, %r30, 4
5293 00052b4 	jal	solve_one_or_network_fast.2961
5294 00052b8 	addi	%r30, %r30, -4
5295 00052bc 	lw	%r31, 3(%r30)
5296 00052c0 	j	beq_cont.9141
5297 00052c4 beq_else.9140:
5297 00052c4 	sw	%r4, 3(%r30)
5298 00052c8 	sw	%r6, 4(%r30)
5299 00052cc 	sw	%r7, 5(%r30)
5300 00052d0 	addi	%r2, %r3, 0
5301 00052d4 	addi	%r1, %r5, 0
5302 00052d8 	sw	%r31, 6(%r30)
5303 00052dc 	addi	%r30, %r30, 7
5304 00052e0 	jal	solver_fast2.2886
5305 00052e4 	addi	%r30, %r30, -7
5306 00052e8 	lw	%r31, 6(%r30)
5307 00052ec 	addi	%r26, %r0, 0
5308 00052f0 	bne	%r1, %r26, beq_else.9142
5309 00052f4 	j	beq_cont.9143
5310 00052f8 beq_else.9142:
5310 00052f8 	lw	%r1, 5(%r30)
5311 00052fc 	addi	%r1, %r1, 0
5312 0005300 	lw.s	%f0, 0(%r1)
5313 0005304 	lw	%r1, 4(%r30)
5314 0005308 	addi	%r1, %r1, 0
5315 000530c 	lw.s	%f1, 0(%r1)
5316 0005310 	sw	%r31, 6(%r30)
5317 0005314 	addi	%r30, %r30, 7
5318 0005318 	jal	fless.2627
5319 000531c 	addi	%r30, %r30, -7
5320 0005320 	lw	%r31, 6(%r30)
5321 0005324 	addi	%r26, %r0, 0
5322 0005328 	bne	%r1, %r26, beq_else.9144
5323 000532c 	j	beq_cont.9145
5324 0005330 beq_else.9144:
5324 0005330 	addi	%r1, %r0, 1
5325 0005334 	lw	%r2, 3(%r30)
5326 0005338 	lw	%r3, 0(%r30)
5327 000533c 	sw	%r31, 6(%r30)
5328 0005340 	addi	%r30, %r30, 7
5329 0005344 	jal	solve_one_or_network_fast.2961
5330 0005348 	addi	%r30, %r30, -7
5331 000534c 	lw	%r31, 6(%r30)
5332 0005350 beq_cont.9145:
5332 0005350 beq_cont.9143:
5332 0005350 beq_cont.9141:
5332 0005350 	lw	%r1, 2(%r30)
5333 0005354 	addi	%r1, %r1, 1
5334 0005358 	lw	%r2, 1(%r30)
5335 000535c 	lw	%r3, 0(%r30)
5336 0005360 	j	trace_or_matrix_fast.2965
5337 0005364 judge_intersection_fast.2969:
5337 0005364 	lw	%r2, 1(%r27)
5338 0005368 	la	%r3, l.6899
5340 0005370 	lw.s	%f0, 0(%r3)
5341 0005374 	la	%r3, const_array.6370
5343 000537c 	addi	%r4, %r3, 0
5344 0005380 	sw.s	%f0, 0(%r4)
5345 0005384 	addi	%r4, %r0, 0
5346 0005388 	addi	%r2, %r2, 0
5347 000538c 	lw	%r2, 0(%r2)
5348 0005390 	sw	%r3, 0(%r30)
5349 0005394 	addi	%r3, %r1, 0
5350 0005398 	addi	%r1, %r4, 0
5351 000539c 	sw	%r31, 1(%r30)
5352 00053a0 	addi	%r30, %r30, 2
5353 00053a4 	jal	trace_or_matrix_fast.2965
5354 00053a8 	addi	%r30, %r30, -2
5355 00053ac 	lw	%r31, 1(%r30)
5356 00053b0 	lw	%r1, 0(%r30)
5357 00053b4 	addi	%r1, %r1, 0
5358 00053b8 	lw.s	%f1, 0(%r1)
5359 00053bc 	la	%r1, l.6876
5361 00053c4 	lw.s	%f0, 0(%r1)
5362 00053c8 	sw.s	%f1, 1(%r30)
5363 00053cc 	sw	%r31, 2(%r30)
5364 00053d0 	addi	%r30, %r30, 3
5365 00053d4 	jal	fless.2627
5366 00053d8 	addi	%r30, %r30, -3
5367 00053dc 	lw	%r31, 2(%r30)
5368 00053e0 	addi	%r26, %r0, 0
5369 00053e4 	bne	%r1, %r26, beq_else.9146
5370 00053e8 	addi	%r1, %r0, 0
5371 00053ec 	jr	%r31
5372 00053f0 beq_else.9146:
5372 00053f0 	la	%r1, l.6905
5374 00053f8 	lw.s	%f1, 0(%r1)
5375 00053fc 	lw.s	%f0, 1(%r30)
5376 0005400 	j	fless.2627
5377 0005404 get_nvector_rect.2971:
5377 0005404 	la	%r2, const_array.6369
5379 000540c 	addi	%r2, %r2, 0
5380 0005410 	lw	%r2, 0(%r2)
5381 0005414 	la	%r3, const_array.6373
5383 000541c 	sw	%r3, 0(%r30)
5384 0005420 	sw	%r1, 1(%r30)
5385 0005424 	sw	%r2, 2(%r30)
5386 0005428 	addi	%r1, %r3, 0
5387 000542c 	sw	%r31, 3(%r30)
5388 0005430 	addi	%r30, %r30, 4
5389 0005434 	jal	vecbzero.2673
5390 0005438 	addi	%r30, %r30, -4
5391 000543c 	lw	%r31, 3(%r30)
5392 0005440 	lw	%r1, 2(%r30)
5393 0005444 	addi	%r2, %r1, -1
5394 0005448 	addi	%r1, %r1, -1
5395 000544c 	lw	%r3, 1(%r30)
5396 0005450 	add	%r1, %r3, %r1
5397 0005454 	lw.s	%f0, 0(%r1)
5398 0005458 	sw	%r2, 3(%r30)
5399 000545c 	sw	%r31, 4(%r30)
5400 0005460 	addi	%r30, %r30, 5
5401 0005464 	jal	sgn.2657
5402 0005468 	addi	%r30, %r30, -5
5403 000546c 	lw	%r31, 4(%r30)
5404 0005470 	sw	%r31, 4(%r30)
5405 0005474 	addi	%r30, %r30, 5
5406 0005478 	jal	min_caml_fneg
5407 000547c 	addi	%r30, %r30, -5
5408 0005480 	lw	%r31, 4(%r30)
5409 0005484 	lw	%r1, 3(%r30)
5410 0005488 	lw	%r2, 0(%r30)
5411 000548c 	add	%r1, %r2, %r1
5412 0005490 	sw.s	%f0, 0(%r1)
5413 0005494 	jr	%r31
5414 0005498 get_nvector_plane.2973:
5414 0005498 	sw	%r1, 0(%r30)
5415 000549c 	sw	%r31, 1(%r30)
5416 00054a0 	addi	%r30, %r30, 2
5417 00054a4 	jal	o_param_a.2721
5418 00054a8 	addi	%r30, %r30, -2
5419 00054ac 	lw	%r31, 1(%r30)
5420 00054b0 	sw	%r31, 1(%r30)
5421 00054b4 	addi	%r30, %r30, 2
5422 00054b8 	jal	min_caml_fneg
5423 00054bc 	addi	%r30, %r30, -2
5424 00054c0 	lw	%r31, 1(%r30)
5425 00054c4 	la	%r1, const_array.6373
5427 00054cc 	addi	%r2, %r1, 0
5428 00054d0 	sw.s	%f0, 0(%r2)
5429 00054d4 	lw	%r2, 0(%r30)
5430 00054d8 	sw	%r1, 1(%r30)
5431 00054dc 	addi	%r1, %r2, 0
5432 00054e0 	sw	%r31, 2(%r30)
5433 00054e4 	addi	%r30, %r30, 3
5434 00054e8 	jal	o_param_b.2723
5435 00054ec 	addi	%r30, %r30, -3
5436 00054f0 	lw	%r31, 2(%r30)
5437 00054f4 	sw	%r31, 2(%r30)
5438 00054f8 	addi	%r30, %r30, 3
5439 00054fc 	jal	min_caml_fneg
5440 0005500 	addi	%r30, %r30, -3
5441 0005504 	lw	%r31, 2(%r30)
5442 0005508 	lw	%r1, 1(%r30)
5443 000550c 	addi	%r2, %r1, 1
5444 0005510 	sw.s	%f0, 0(%r2)
5445 0005514 	lw	%r2, 0(%r30)
5446 0005518 	addi	%r1, %r2, 0
5447 000551c 	sw	%r31, 2(%r30)
5448 0005520 	addi	%r30, %r30, 3
5449 0005524 	jal	o_param_c.2725
5450 0005528 	addi	%r30, %r30, -3
5451 000552c 	lw	%r31, 2(%r30)
5452 0005530 	sw	%r31, 2(%r30)
5453 0005534 	addi	%r30, %r30, 3
5454 0005538 	jal	min_caml_fneg
5455 000553c 	addi	%r30, %r30, -3
5456 0005540 	lw	%r31, 2(%r30)
5457 0005544 	lw	%r1, 1(%r30)
5458 0005548 	addi	%r1, %r1, 2
5459 000554c 	sw.s	%f0, 0(%r1)
5460 0005550 	jr	%r31
5461 0005554 get_nvector_second.2975:
5461 0005554 	la	%r2, const_array.6371
5463 000555c 	addi	%r3, %r2, 0
5464 0005560 	lw.s	%f0, 0(%r3)
5465 0005564 	sw	%r1, 0(%r30)
5466 0005568 	sw	%r2, 1(%r30)
5467 000556c 	sw.s	%f0, 2(%r30)
5468 0005570 	sw	%r31, 3(%r30)
5469 0005574 	addi	%r30, %r30, 4
5470 0005578 	jal	o_param_x.2729
5471 000557c 	addi	%r30, %r30, -4
5472 0005580 	lw	%r31, 3(%r30)
5473 0005584 	lw.s	%f1, 2(%r30)
5474 0005588 	sub.s	%f0, %f1, %f0
5475 000558c 	lw	%r1, 1(%r30)
5476 0005590 	addi	%r2, %r1, 1
5477 0005594 	lw.s	%f1, 0(%r2)
5478 0005598 	lw	%r2, 0(%r30)
5479 000559c 	sw.s	%f0, 3(%r30)
5480 00055a0 	sw.s	%f1, 4(%r30)
5481 00055a4 	addi	%r1, %r2, 0
5482 00055a8 	sw	%r31, 5(%r30)
5483 00055ac 	addi	%r30, %r30, 6
5484 00055b0 	jal	o_param_y.2731
5485 00055b4 	addi	%r30, %r30, -6
5486 00055b8 	lw	%r31, 5(%r30)
5487 00055bc 	lw.s	%f1, 4(%r30)
5488 00055c0 	sub.s	%f0, %f1, %f0
5489 00055c4 	lw	%r1, 1(%r30)
5490 00055c8 	addi	%r1, %r1, 2
5491 00055cc 	lw.s	%f1, 0(%r1)
5492 00055d0 	lw	%r1, 0(%r30)
5493 00055d4 	sw.s	%f0, 5(%r30)
5494 00055d8 	sw.s	%f1, 6(%r30)
5495 00055dc 	sw	%r31, 7(%r30)
5496 00055e0 	addi	%r30, %r30, 8
5497 00055e4 	jal	o_param_z.2733
5498 00055e8 	addi	%r30, %r30, -8
5499 00055ec 	lw	%r31, 7(%r30)
5500 00055f0 	lw.s	%f1, 6(%r30)
5501 00055f4 	sub.s	%f0, %f1, %f0
5502 00055f8 	lw	%r1, 0(%r30)
5503 00055fc 	sw.s	%f0, 7(%r30)
5504 0005600 	sw	%r31, 8(%r30)
5505 0005604 	addi	%r30, %r30, 9
5506 0005608 	jal	o_param_a.2721
5507 000560c 	addi	%r30, %r30, -9
5508 0005610 	lw	%r31, 8(%r30)
5509 0005614 	lw.s	%f1, 3(%r30)
5510 0005618 	mul.s	%f0, %f1, %f0
5511 000561c 	lw	%r1, 0(%r30)
5512 0005620 	sw.s	%f0, 8(%r30)
5513 0005624 	sw	%r31, 9(%r30)
5514 0005628 	addi	%r30, %r30, 10
5515 000562c 	jal	o_param_b.2723
5516 0005630 	addi	%r30, %r30, -10
5517 0005634 	lw	%r31, 9(%r30)
5518 0005638 	lw.s	%f1, 5(%r30)
5519 000563c 	mul.s	%f0, %f1, %f0
5520 0005640 	lw	%r1, 0(%r30)
5521 0005644 	sw.s	%f0, 9(%r30)
5522 0005648 	sw	%r31, 10(%r30)
5523 000564c 	addi	%r30, %r30, 11
5524 0005650 	jal	o_param_c.2725
5525 0005654 	addi	%r30, %r30, -11
5526 0005658 	lw	%r31, 10(%r30)
5527 000565c 	lw.s	%f1, 7(%r30)
5528 0005660 	mul.s	%f0, %f1, %f0
5529 0005664 	lw	%r1, 0(%r30)
5530 0005668 	sw.s	%f0, 10(%r30)
5531 000566c 	sw	%r31, 11(%r30)
5532 0005670 	addi	%r30, %r30, 12
5533 0005674 	jal	o_isrot.2719
5534 0005678 	addi	%r30, %r30, -12
5535 000567c 	lw	%r31, 11(%r30)
5536 0005680 	la	%r2, const_array.6373
5538 0005688 	sw	%r2, 11(%r30)
5539 000568c 	addi	%r26, %r0, 0
5540 0005690 	bne	%r1, %r26, beq_else.9149
5541 0005694 	addi	%r1, %r2, 0
5542 0005698 	lw.s	%f0, 8(%r30)
5543 000569c 	sw.s	%f0, 0(%r1)
5544 00056a0 	addi	%r1, %r2, 1
5545 00056a4 	lw.s	%f0, 9(%r30)
5546 00056a8 	sw.s	%f0, 0(%r1)
5547 00056ac 	addi	%r1, %r2, 2
5548 00056b0 	lw.s	%f0, 10(%r30)
5549 00056b4 	sw.s	%f0, 0(%r1)
5550 00056b8 	j	beq_cont.9150
5551 00056bc beq_else.9149:
5551 00056bc 	lw	%r1, 0(%r30)
5552 00056c0 	sw	%r31, 12(%r30)
5553 00056c4 	addi	%r30, %r30, 13
5554 00056c8 	jal	o_param_r3.2749
5555 00056cc 	addi	%r30, %r30, -13
5556 00056d0 	lw	%r31, 12(%r30)
5557 00056d4 	lw.s	%f1, 5(%r30)
5558 00056d8 	mul.s	%f0, %f1, %f0
5559 00056dc 	lw	%r1, 0(%r30)
5560 00056e0 	sw.s	%f0, 12(%r30)
5561 00056e4 	sw	%r31, 13(%r30)
5562 00056e8 	addi	%r30, %r30, 14
5563 00056ec 	jal	o_param_r2.2747
5564 00056f0 	addi	%r30, %r30, -14
5565 00056f4 	lw	%r31, 13(%r30)
5566 00056f8 	lw.s	%f1, 7(%r30)
5567 00056fc 	mul.s	%f0, %f1, %f0
5568 0005700 	lw.s	%f2, 12(%r30)
5569 0005704 	add.s	%f0, %f2, %f0
5570 0005708 	sw	%r31, 13(%r30)
5571 000570c 	addi	%r30, %r30, 14
5572 0005710 	jal	fhalf.2636
5573 0005714 	addi	%r30, %r30, -14
5574 0005718 	lw	%r31, 13(%r30)
5575 000571c 	lw.s	%f1, 8(%r30)
5576 0005720 	add.s	%f0, %f1, %f0
5577 0005724 	lw	%r1, 11(%r30)
5578 0005728 	addi	%r2, %r1, 0
5579 000572c 	sw.s	%f0, 0(%r2)
5580 0005730 	lw	%r2, 0(%r30)
5581 0005734 	addi	%r1, %r2, 0
5582 0005738 	sw	%r31, 13(%r30)
5583 000573c 	addi	%r30, %r30, 14
5584 0005740 	jal	o_param_r3.2749
5585 0005744 	addi	%r30, %r30, -14
5586 0005748 	lw	%r31, 13(%r30)
5587 000574c 	lw.s	%f1, 3(%r30)
5588 0005750 	mul.s	%f0, %f1, %f0
5589 0005754 	lw	%r1, 0(%r30)
5590 0005758 	sw.s	%f0, 13(%r30)
5591 000575c 	sw	%r31, 14(%r30)
5592 0005760 	addi	%r30, %r30, 15
5593 0005764 	jal	o_param_r1.2745
5594 0005768 	addi	%r30, %r30, -15
5595 000576c 	lw	%r31, 14(%r30)
5596 0005770 	lw.s	%f1, 7(%r30)
5597 0005774 	mul.s	%f0, %f1, %f0
5598 0005778 	lw.s	%f1, 13(%r30)
5599 000577c 	add.s	%f0, %f1, %f0
5600 0005780 	sw	%r31, 14(%r30)
5601 0005784 	addi	%r30, %r30, 15
5602 0005788 	jal	fhalf.2636
5603 000578c 	addi	%r30, %r30, -15
5604 0005790 	lw	%r31, 14(%r30)
5605 0005794 	lw.s	%f1, 9(%r30)
5606 0005798 	add.s	%f0, %f1, %f0
5607 000579c 	lw	%r1, 11(%r30)
5608 00057a0 	addi	%r2, %r1, 1
5609 00057a4 	sw.s	%f0, 0(%r2)
5610 00057a8 	lw	%r2, 0(%r30)
5611 00057ac 	addi	%r1, %r2, 0
5612 00057b0 	sw	%r31, 14(%r30)
5613 00057b4 	addi	%r30, %r30, 15
5614 00057b8 	jal	o_param_r2.2747
5615 00057bc 	addi	%r30, %r30, -15
5616 00057c0 	lw	%r31, 14(%r30)
5617 00057c4 	lw.s	%f1, 3(%r30)
5618 00057c8 	mul.s	%f0, %f1, %f0
5619 00057cc 	lw	%r1, 0(%r30)
5620 00057d0 	sw.s	%f0, 14(%r30)
5621 00057d4 	sw	%r31, 15(%r30)
5622 00057d8 	addi	%r30, %r30, 16
5623 00057dc 	jal	o_param_r1.2745
5624 00057e0 	addi	%r30, %r30, -16
5625 00057e4 	lw	%r31, 15(%r30)
5626 00057e8 	lw.s	%f1, 5(%r30)
5627 00057ec 	mul.s	%f0, %f1, %f0
5628 00057f0 	lw.s	%f1, 14(%r30)
5629 00057f4 	add.s	%f0, %f1, %f0
5630 00057f8 	sw	%r31, 15(%r30)
5631 00057fc 	addi	%r30, %r30, 16
5632 0005800 	jal	fhalf.2636
5633 0005804 	addi	%r30, %r30, -16
5634 0005808 	lw	%r31, 15(%r30)
5635 000580c 	lw.s	%f1, 10(%r30)
5636 0005810 	add.s	%f0, %f1, %f0
5637 0005814 	lw	%r1, 11(%r30)
5638 0005818 	addi	%r2, %r1, 2
5639 000581c 	sw.s	%f0, 0(%r2)
5640 0005820 beq_cont.9150:
5640 0005820 	lw	%r1, 0(%r30)
5641 0005824 	sw	%r31, 15(%r30)
5642 0005828 	addi	%r30, %r30, 16
5643 000582c 	jal	o_isinvert.2717
5644 0005830 	addi	%r30, %r30, -16
5645 0005834 	lw	%r31, 15(%r30)
5646 0005838 	addi	%r2, %r1, 0
5647 000583c 	lw	%r1, 11(%r30)
5648 0005840 	j	vecunit_sgn.2683
5649 0005844 get_nvector.2977:
5649 0005844 	sw	%r1, 0(%r30)
5650 0005848 	sw	%r2, 1(%r30)
5651 000584c 	sw	%r31, 2(%r30)
5652 0005850 	addi	%r30, %r30, 3
5653 0005854 	jal	o_form.2713
5654 0005858 	addi	%r30, %r30, -3
5655 000585c 	lw	%r31, 2(%r30)
5656 0005860 	addi	%r26, %r0, 1
5657 0005864 	bne	%r1, %r26, beq_else.9151
5658 0005868 	lw	%r1, 1(%r30)
5659 000586c 	j	get_nvector_rect.2971
5660 0005870 beq_else.9151:
5660 0005870 	addi	%r26, %r0, 2
5661 0005874 	bne	%r1, %r26, beq_else.9152
5662 0005878 	lw	%r1, 0(%r30)
5663 000587c 	j	get_nvector_plane.2973
5664 0005880 beq_else.9152:
5664 0005880 	lw	%r1, 0(%r30)
5665 0005884 	j	get_nvector_second.2975
5666 0005888 utexture.2980:
5666 0005888 	sw	%r2, 0(%r30)
5667 000588c 	sw	%r1, 1(%r30)
5668 0005890 	sw	%r31, 2(%r30)
5669 0005894 	addi	%r30, %r30, 3
5670 0005898 	jal	o_texturetype.2711
5671 000589c 	addi	%r30, %r30, -3
5672 00058a0 	lw	%r31, 2(%r30)
5673 00058a4 	lw	%r2, 1(%r30)
5674 00058a8 	sw	%r1, 2(%r30)
5675 00058ac 	addi	%r1, %r2, 0
5676 00058b0 	sw	%r31, 3(%r30)
5677 00058b4 	addi	%r30, %r30, 4
5678 00058b8 	jal	o_color_red.2739
5679 00058bc 	addi	%r30, %r30, -4
5680 00058c0 	lw	%r31, 3(%r30)
5681 00058c4 	la	%r1, const_array.6374
5683 00058cc 	addi	%r2, %r1, 0
5684 00058d0 	sw.s	%f0, 0(%r2)
5685 00058d4 	lw	%r2, 1(%r30)
5686 00058d8 	sw	%r1, 3(%r30)
5687 00058dc 	addi	%r1, %r2, 0
5688 00058e0 	sw	%r31, 4(%r30)
5689 00058e4 	addi	%r30, %r30, 5
5690 00058e8 	jal	o_color_green.2741
5691 00058ec 	addi	%r30, %r30, -5
5692 00058f0 	lw	%r31, 4(%r30)
5693 00058f4 	lw	%r1, 3(%r30)
5694 00058f8 	addi	%r2, %r1, 1
5695 00058fc 	sw.s	%f0, 0(%r2)
5696 0005900 	lw	%r2, 1(%r30)
5697 0005904 	addi	%r1, %r2, 0
5698 0005908 	sw	%r31, 4(%r30)
5699 000590c 	addi	%r30, %r30, 5
5700 0005910 	jal	o_color_blue.2743
5701 0005914 	addi	%r30, %r30, -5
5702 0005918 	lw	%r31, 4(%r30)
5703 000591c 	lw	%r1, 3(%r30)
5704 0005920 	addi	%r2, %r1, 2
5705 0005924 	sw.s	%f0, 0(%r2)
5706 0005928 	lw	%r2, 2(%r30)
5707 000592c 	addi	%r26, %r0, 1
5708 0005930 	bne	%r2, %r26, beq_else.9153
5709 0005934 	lw	%r2, 0(%r30)
5710 0005938 	addi	%r3, %r2, 0
5711 000593c 	lw.s	%f0, 0(%r3)
5712 0005940 	lw	%r3, 1(%r30)
5713 0005944 	sw.s	%f0, 4(%r30)
5714 0005948 	addi	%r1, %r3, 0
5715 000594c 	sw	%r31, 5(%r30)
5716 0005950 	addi	%r30, %r30, 6
5717 0005954 	jal	o_param_x.2729
5718 0005958 	addi	%r30, %r30, -6
5719 000595c 	lw	%r31, 5(%r30)
5720 0005960 	lw.s	%f1, 4(%r30)
5721 0005964 	sub.s	%f0, %f1, %f0
5722 0005968 	la	%r1, l.6996
5724 0005970 	lw.s	%f1, 0(%r1)
5725 0005974 	mul.s	%f1, %f0, %f1
5726 0005978 	sw.s	%f0, 5(%r30)
5727 000597c 	mov.s	%f0, %f1
5728 0005980 	sw	%r31, 6(%r30)
5729 0005984 	addi	%r30, %r30, 7
5730 0005988 	jal	floor.2652
5731 000598c 	addi	%r30, %r30, -7
5732 0005990 	lw	%r31, 6(%r30)
5733 0005994 	la	%r1, l.6998
5735 000599c 	lw.s	%f1, 0(%r1)
5736 00059a0 	mul.s	%f0, %f0, %f1
5737 00059a4 	lw.s	%f1, 5(%r30)
5738 00059a8 	sub.s	%f0, %f1, %f0
5739 00059ac 	la	%r1, l.6979
5741 00059b4 	lw.s	%f1, 0(%r1)
5742 00059b8 	sw	%r31, 6(%r30)
5743 00059bc 	addi	%r30, %r30, 7
5744 00059c0 	jal	fless.2627
5745 00059c4 	addi	%r30, %r30, -7
5746 00059c8 	lw	%r31, 6(%r30)
5747 00059cc 	lw	%r2, 0(%r30)
5748 00059d0 	addi	%r2, %r2, 2
5749 00059d4 	lw.s	%f0, 0(%r2)
5750 00059d8 	lw	%r2, 1(%r30)
5751 00059dc 	sw	%r1, 6(%r30)
5752 00059e0 	sw.s	%f0, 7(%r30)
5753 00059e4 	addi	%r1, %r2, 0
5754 00059e8 	sw	%r31, 8(%r30)
5755 00059ec 	addi	%r30, %r30, 9
5756 00059f0 	jal	o_param_z.2733
5757 00059f4 	addi	%r30, %r30, -9
5758 00059f8 	lw	%r31, 8(%r30)
5759 00059fc 	lw.s	%f1, 7(%r30)
5760 0005a00 	sub.s	%f0, %f1, %f0
5761 0005a04 	la	%r1, l.6996
5763 0005a0c 	lw.s	%f1, 0(%r1)
5764 0005a10 	mul.s	%f1, %f0, %f1
5765 0005a14 	sw.s	%f0, 8(%r30)
5766 0005a18 	mov.s	%f0, %f1
5767 0005a1c 	sw	%r31, 9(%r30)
5768 0005a20 	addi	%r30, %r30, 10
5769 0005a24 	jal	floor.2652
5770 0005a28 	addi	%r30, %r30, -10
5771 0005a2c 	lw	%r31, 9(%r30)
5772 0005a30 	la	%r1, l.6998
5774 0005a38 	lw.s	%f1, 0(%r1)
5775 0005a3c 	mul.s	%f0, %f0, %f1
5776 0005a40 	lw.s	%f1, 8(%r30)
5777 0005a44 	sub.s	%f0, %f1, %f0
5778 0005a48 	la	%r1, l.6979
5780 0005a50 	lw.s	%f1, 0(%r1)
5781 0005a54 	sw	%r31, 9(%r30)
5782 0005a58 	addi	%r30, %r30, 10
5783 0005a5c 	jal	fless.2627
5784 0005a60 	addi	%r30, %r30, -10
5785 0005a64 	lw	%r31, 9(%r30)
5786 0005a68 	lw	%r2, 6(%r30)
5787 0005a6c 	addi	%r26, %r0, 0
5788 0005a70 	bne	%r2, %r26, beq_else.9154
5789 0005a74 	addi	%r26, %r0, 0
5790 0005a78 	bne	%r1, %r26, beq_else.9156
5791 0005a7c 	la	%r1, l.6972
5793 0005a84 	lw.s	%f0, 0(%r1)
5794 0005a88 	j	beq_cont.9157
5795 0005a8c beq_else.9156:
5795 0005a8c 	la	%r1, l.6401
5797 0005a94 	lw.s	%f0, 0(%r1)
5798 0005a98 beq_cont.9157:
5798 0005a98 	j	beq_cont.9155
5799 0005a9c beq_else.9154:
5799 0005a9c 	addi	%r26, %r0, 0
5800 0005aa0 	bne	%r1, %r26, beq_else.9158
5801 0005aa4 	la	%r1, l.6401
5803 0005aac 	lw.s	%f0, 0(%r1)
5804 0005ab0 	j	beq_cont.9159
5805 0005ab4 beq_else.9158:
5805 0005ab4 	la	%r1, l.6972
5807 0005abc 	lw.s	%f0, 0(%r1)
5808 0005ac0 beq_cont.9159:
5808 0005ac0 beq_cont.9155:
5808 0005ac0 	lw	%r1, 3(%r30)
5809 0005ac4 	addi	%r1, %r1, 1
5810 0005ac8 	sw.s	%f0, 0(%r1)
5811 0005acc 	jr	%r31
5812 0005ad0 beq_else.9153:
5812 0005ad0 	addi	%r26, %r0, 2
5813 0005ad4 	bne	%r2, %r26, beq_else.9161
5814 0005ad8 	lw	%r2, 0(%r30)
5815 0005adc 	addi	%r2, %r2, 1
5816 0005ae0 	lw.s	%f0, 0(%r2)
5817 0005ae4 	la	%r2, l.6988
5819 0005aec 	lw.s	%f1, 0(%r2)
5820 0005af0 	mul.s	%f0, %f0, %f1
5821 0005af4 	sw	%r31, 9(%r30)
5822 0005af8 	addi	%r30, %r30, 10
5823 0005afc 	jal	sin.2646
5824 0005b00 	addi	%r30, %r30, -10
5825 0005b04 	lw	%r31, 9(%r30)
5826 0005b08 	sw	%r31, 9(%r30)
5827 0005b0c 	addi	%r30, %r30, 10
5828 0005b10 	jal	fsqr.2638
5829 0005b14 	addi	%r30, %r30, -10
5830 0005b18 	lw	%r31, 9(%r30)
5831 0005b1c 	la	%r1, l.6972
5833 0005b24 	lw.s	%f1, 0(%r1)
5834 0005b28 	mul.s	%f1, %f1, %f0
5835 0005b2c 	lw	%r1, 3(%r30)
5836 0005b30 	addi	%r2, %r1, 0
5837 0005b34 	sw.s	%f1, 0(%r2)
5838 0005b38 	la	%r2, l.6972
5840 0005b40 	lw.s	%f1, 0(%r2)
5841 0005b44 	la	%r2, l.6407
5843 0005b4c 	lw.s	%f2, 0(%r2)
5844 0005b50 	sub.s	%f0, %f2, %f0
5845 0005b54 	mul.s	%f0, %f1, %f0
5846 0005b58 	addi	%r1, %r1, 1
5847 0005b5c 	sw.s	%f0, 0(%r1)
5848 0005b60 	jr	%r31
5849 0005b64 beq_else.9161:
5849 0005b64 	addi	%r26, %r0, 3
5850 0005b68 	bne	%r2, %r26, beq_else.9163
5851 0005b6c 	lw	%r2, 0(%r30)
5852 0005b70 	addi	%r3, %r2, 0
5853 0005b74 	lw.s	%f0, 0(%r3)
5854 0005b78 	lw	%r3, 1(%r30)
5855 0005b7c 	sw.s	%f0, 9(%r30)
5856 0005b80 	addi	%r1, %r3, 0
5857 0005b84 	sw	%r31, 10(%r30)
5858 0005b88 	addi	%r30, %r30, 11
5859 0005b8c 	jal	o_param_x.2729
5860 0005b90 	addi	%r30, %r30, -11
5861 0005b94 	lw	%r31, 10(%r30)
5862 0005b98 	lw.s	%f1, 9(%r30)
5863 0005b9c 	sub.s	%f0, %f1, %f0
5864 0005ba0 	lw	%r1, 0(%r30)
5865 0005ba4 	addi	%r1, %r1, 2
5866 0005ba8 	lw.s	%f1, 0(%r1)
5867 0005bac 	lw	%r1, 1(%r30)
5868 0005bb0 	sw.s	%f0, 10(%r30)
5869 0005bb4 	sw.s	%f1, 11(%r30)
5870 0005bb8 	sw	%r31, 12(%r30)
5871 0005bbc 	addi	%r30, %r30, 13
5872 0005bc0 	jal	o_param_z.2733
5873 0005bc4 	addi	%r30, %r30, -13
5874 0005bc8 	lw	%r31, 12(%r30)
5875 0005bcc 	lw.s	%f1, 11(%r30)
5876 0005bd0 	sub.s	%f0, %f1, %f0
5877 0005bd4 	lw.s	%f1, 10(%r30)
5878 0005bd8 	sw.s	%f0, 12(%r30)
5879 0005bdc 	mov.s	%f0, %f1
5880 0005be0 	sw	%r31, 13(%r30)
5881 0005be4 	addi	%r30, %r30, 14
5882 0005be8 	jal	fsqr.2638
5883 0005bec 	addi	%r30, %r30, -14
5884 0005bf0 	lw	%r31, 13(%r30)
5885 0005bf4 	lw.s	%f1, 12(%r30)
5886 0005bf8 	sw.s	%f0, 13(%r30)
5887 0005bfc 	mov.s	%f0, %f1
5888 0005c00 	sw	%r31, 14(%r30)
5889 0005c04 	addi	%r30, %r30, 15
5890 0005c08 	jal	fsqr.2638
5891 0005c0c 	addi	%r30, %r30, -15
5892 0005c10 	lw	%r31, 14(%r30)
5893 0005c14 	lw.s	%f1, 13(%r30)
5894 0005c18 	add.s	%f0, %f1, %f0
5895 0005c1c 	sqrt.s	%f0, %f0
5896 0005c20 	la	%r1, l.6979
5898 0005c28 	lw.s	%f1, 0(%r1)
5899 0005c2c 	div.s	%f0, %f0, %f1
5900 0005c30 	sw.s	%f0, 14(%r30)
5901 0005c34 	sw	%r31, 15(%r30)
5902 0005c38 	addi	%r30, %r30, 16
5903 0005c3c 	jal	floor.2652
5904 0005c40 	addi	%r30, %r30, -16
5905 0005c44 	lw	%r31, 15(%r30)
5906 0005c48 	lw.s	%f1, 14(%r30)
5907 0005c4c 	sub.s	%f0, %f1, %f0
5908 0005c50 	la	%r1, l.6960
5910 0005c58 	lw.s	%f1, 0(%r1)
5911 0005c5c 	mul.s	%f0, %f0, %f1
5912 0005c60 	sw	%r31, 15(%r30)
5913 0005c64 	addi	%r30, %r30, 16
5914 0005c68 	jal	cos.2644
5915 0005c6c 	addi	%r30, %r30, -16
5916 0005c70 	lw	%r31, 15(%r30)
5917 0005c74 	sw	%r31, 15(%r30)
5918 0005c78 	addi	%r30, %r30, 16
5919 0005c7c 	jal	fsqr.2638
5920 0005c80 	addi	%r30, %r30, -16
5921 0005c84 	lw	%r31, 15(%r30)
5922 0005c88 	la	%r1, l.6972
5924 0005c90 	lw.s	%f1, 0(%r1)
5925 0005c94 	mul.s	%f1, %f0, %f1
5926 0005c98 	lw	%r1, 3(%r30)
5927 0005c9c 	addi	%r2, %r1, 1
5928 0005ca0 	sw.s	%f1, 0(%r2)
5929 0005ca4 	la	%r2, l.6407
5931 0005cac 	lw.s	%f1, 0(%r2)
5932 0005cb0 	sub.s	%f0, %f1, %f0
5933 0005cb4 	la	%r2, l.6972
5935 0005cbc 	lw.s	%f1, 0(%r2)
5936 0005cc0 	mul.s	%f0, %f0, %f1
5937 0005cc4 	addi	%r1, %r1, 2
5938 0005cc8 	sw.s	%f0, 0(%r1)
5939 0005ccc 	jr	%r31
5940 0005cd0 beq_else.9163:
5940 0005cd0 	addi	%r26, %r0, 4
5941 0005cd4 	bne	%r2, %r26, beq_else.9165
5942 0005cd8 	lw	%r2, 0(%r30)
5943 0005cdc 	addi	%r3, %r2, 0
5944 0005ce0 	lw.s	%f0, 0(%r3)
5945 0005ce4 	lw	%r3, 1(%r30)
5946 0005ce8 	sw.s	%f0, 15(%r30)
5947 0005cec 	addi	%r1, %r3, 0
5948 0005cf0 	sw	%r31, 16(%r30)
5949 0005cf4 	addi	%r30, %r30, 17
5950 0005cf8 	jal	o_param_x.2729
5951 0005cfc 	addi	%r30, %r30, -17
5952 0005d00 	lw	%r31, 16(%r30)
5953 0005d04 	lw.s	%f1, 15(%r30)
5954 0005d08 	sub.s	%f0, %f1, %f0
5955 0005d0c 	lw	%r1, 1(%r30)
5956 0005d10 	sw.s	%f0, 16(%r30)
5957 0005d14 	sw	%r31, 17(%r30)
5958 0005d18 	addi	%r30, %r30, 18
5959 0005d1c 	jal	o_param_a.2721
5960 0005d20 	addi	%r30, %r30, -18
5961 0005d24 	lw	%r31, 17(%r30)
5962 0005d28 	sqrt.s	%f0, %f0
5963 0005d2c 	lw.s	%f1, 16(%r30)
5964 0005d30 	mul.s	%f0, %f1, %f0
5965 0005d34 	lw	%r1, 0(%r30)
5966 0005d38 	addi	%r2, %r1, 2
5967 0005d3c 	lw.s	%f1, 0(%r2)
5968 0005d40 	lw	%r2, 1(%r30)
5969 0005d44 	sw.s	%f0, 17(%r30)
5970 0005d48 	sw.s	%f1, 18(%r30)
5971 0005d4c 	addi	%r1, %r2, 0
5972 0005d50 	sw	%r31, 19(%r30)
5973 0005d54 	addi	%r30, %r30, 20
5974 0005d58 	jal	o_param_z.2733
5975 0005d5c 	addi	%r30, %r30, -20
5976 0005d60 	lw	%r31, 19(%r30)
5977 0005d64 	lw.s	%f1, 18(%r30)
5978 0005d68 	sub.s	%f0, %f1, %f0
5979 0005d6c 	lw	%r1, 1(%r30)
5980 0005d70 	sw.s	%f0, 19(%r30)
5981 0005d74 	sw	%r31, 20(%r30)
5982 0005d78 	addi	%r30, %r30, 21
5983 0005d7c 	jal	o_param_c.2725
5984 0005d80 	addi	%r30, %r30, -21
5985 0005d84 	lw	%r31, 20(%r30)
5986 0005d88 	sqrt.s	%f0, %f0
5987 0005d8c 	lw.s	%f1, 19(%r30)
5988 0005d90 	mul.s	%f0, %f1, %f0
5989 0005d94 	lw.s	%f1, 17(%r30)
5990 0005d98 	sw.s	%f0, 20(%r30)
5991 0005d9c 	mov.s	%f0, %f1
5992 0005da0 	sw	%r31, 21(%r30)
5993 0005da4 	addi	%r30, %r30, 22
5994 0005da8 	jal	fsqr.2638
5995 0005dac 	addi	%r30, %r30, -22
5996 0005db0 	lw	%r31, 21(%r30)
5997 0005db4 	lw.s	%f1, 20(%r30)
5998 0005db8 	sw.s	%f0, 21(%r30)
5999 0005dbc 	mov.s	%f0, %f1
6000 0005dc0 	sw	%r31, 22(%r30)
6001 0005dc4 	addi	%r30, %r30, 23
6002 0005dc8 	jal	fsqr.2638
6003 0005dcc 	addi	%r30, %r30, -23
6004 0005dd0 	lw	%r31, 22(%r30)
6005 0005dd4 	lw.s	%f1, 21(%r30)
6006 0005dd8 	add.s	%f0, %f1, %f0
6007 0005ddc 	lw.s	%f1, 17(%r30)
6008 0005de0 	abs.s	%f2, %f1
6009 0005de4 	la	%r1, l.6954
6011 0005dec 	lw.s	%f3, 0(%r1)
6012 0005df0 	sw.s	%f0, 22(%r30)
6013 0005df4 	mov.s	%f1, %f3
6014 0005df8 	mov.s	%f0, %f2
6015 0005dfc 	sw	%r31, 23(%r30)
6016 0005e00 	addi	%r30, %r30, 24
6017 0005e04 	jal	fless.2627
6018 0005e08 	addi	%r30, %r30, -24
6019 0005e0c 	lw	%r31, 23(%r30)
6020 0005e10 	addi	%r26, %r0, 0
6021 0005e14 	bne	%r1, %r26, beq_else.9166
6022 0005e18 	lw.s	%f0, 17(%r30)
6023 0005e1c 	lw.s	%f1, 20(%r30)
6024 0005e20 	div.s	%f0, %f1, %f0
6025 0005e24 	abs.s	%f0, %f0
6026 0005e28 	sw	%r31, 23(%r30)
6027 0005e2c 	addi	%r30, %r30, 24
6028 0005e30 	jal	atan.2650
6029 0005e34 	addi	%r30, %r30, -24
6030 0005e38 	lw	%r31, 23(%r30)
6031 0005e3c 	la	%r1, l.6958
6033 0005e44 	lw.s	%f1, 0(%r1)
6034 0005e48 	mul.s	%f0, %f0, %f1
6035 0005e4c 	la	%r1, l.6960
6037 0005e54 	lw.s	%f1, 0(%r1)
6038 0005e58 	div.s	%f0, %f0, %f1
6039 0005e5c 	j	beq_cont.9167
6040 0005e60 beq_else.9166:
6040 0005e60 	la	%r1, l.6956
6042 0005e68 	lw.s	%f0, 0(%r1)
6043 0005e6c beq_cont.9167:
6043 0005e6c 	sw.s	%f0, 23(%r30)
6044 0005e70 	sw	%r31, 24(%r30)
6045 0005e74 	addi	%r30, %r30, 25
6046 0005e78 	jal	floor.2652
6047 0005e7c 	addi	%r30, %r30, -25
6048 0005e80 	lw	%r31, 24(%r30)
6049 0005e84 	lw.s	%f1, 23(%r30)
6050 0005e88 	sub.s	%f0, %f1, %f0
6051 0005e8c 	lw	%r1, 0(%r30)
6052 0005e90 	addi	%r1, %r1, 1
6053 0005e94 	lw.s	%f1, 0(%r1)
6054 0005e98 	lw	%r1, 1(%r30)
6055 0005e9c 	sw.s	%f0, 24(%r30)
6056 0005ea0 	sw.s	%f1, 25(%r30)
6057 0005ea4 	sw	%r31, 26(%r30)
6058 0005ea8 	addi	%r30, %r30, 27
6059 0005eac 	jal	o_param_y.2731
6060 0005eb0 	addi	%r30, %r30, -27
6061 0005eb4 	lw	%r31, 26(%r30)
6062 0005eb8 	lw.s	%f1, 25(%r30)
6063 0005ebc 	sub.s	%f0, %f1, %f0
6064 0005ec0 	lw	%r1, 1(%r30)
6065 0005ec4 	sw.s	%f0, 26(%r30)
6066 0005ec8 	sw	%r31, 27(%r30)
6067 0005ecc 	addi	%r30, %r30, 28
6068 0005ed0 	jal	o_param_b.2723
6069 0005ed4 	addi	%r30, %r30, -28
6070 0005ed8 	lw	%r31, 27(%r30)
6071 0005edc 	sqrt.s	%f0, %f0
6072 0005ee0 	lw.s	%f1, 26(%r30)
6073 0005ee4 	mul.s	%f0, %f1, %f0
6074 0005ee8 	lw.s	%f1, 22(%r30)
6075 0005eec 	abs.s	%f2, %f1
6076 0005ef0 	la	%r1, l.6954
6078 0005ef8 	lw.s	%f3, 0(%r1)
6079 0005efc 	sw.s	%f0, 27(%r30)
6080 0005f00 	mov.s	%f1, %f3
6081 0005f04 	mov.s	%f0, %f2
6082 0005f08 	sw	%r31, 28(%r30)
6083 0005f0c 	addi	%r30, %r30, 29
6084 0005f10 	jal	fless.2627
6085 0005f14 	addi	%r30, %r30, -29
6086 0005f18 	lw	%r31, 28(%r30)
6087 0005f1c 	addi	%r26, %r0, 0
6088 0005f20 	bne	%r1, %r26, beq_else.9168
6089 0005f24 	lw.s	%f0, 22(%r30)
6090 0005f28 	lw.s	%f1, 27(%r30)
6091 0005f2c 	div.s	%f0, %f1, %f0
6092 0005f30 	abs.s	%f0, %f0
6093 0005f34 	sw	%r31, 28(%r30)
6094 0005f38 	addi	%r30, %r30, 29
6095 0005f3c 	jal	atan.2650
6096 0005f40 	addi	%r30, %r30, -29
6097 0005f44 	lw	%r31, 28(%r30)
6098 0005f48 	la	%r1, l.6958
6100 0005f50 	lw.s	%f1, 0(%r1)
6101 0005f54 	mul.s	%f0, %f0, %f1
6102 0005f58 	la	%r1, l.6960
6104 0005f60 	lw.s	%f1, 0(%r1)
6105 0005f64 	div.s	%f0, %f0, %f1
6106 0005f68 	j	beq_cont.9169
6107 0005f6c beq_else.9168:
6107 0005f6c 	la	%r1, l.6956
6109 0005f74 	lw.s	%f0, 0(%r1)
6110 0005f78 beq_cont.9169:
6110 0005f78 	sw.s	%f0, 28(%r30)
6111 0005f7c 	sw	%r31, 29(%r30)
6112 0005f80 	addi	%r30, %r30, 30
6113 0005f84 	jal	floor.2652
6114 0005f88 	addi	%r30, %r30, -30
6115 0005f8c 	lw	%r31, 29(%r30)
6116 0005f90 	lw.s	%f1, 28(%r30)
6117 0005f94 	sub.s	%f0, %f1, %f0
6118 0005f98 	la	%r1, l.6967
6120 0005fa0 	lw.s	%f1, 0(%r1)
6121 0005fa4 	la	%r1, l.6405
6123 0005fac 	lw.s	%f2, 0(%r1)
6124 0005fb0 	lw.s	%f3, 24(%r30)
6125 0005fb4 	sub.s	%f2, %f2, %f3
6126 0005fb8 	sw.s	%f0, 29(%r30)
6127 0005fbc 	sw.s	%f1, 30(%r30)
6128 0005fc0 	mov.s	%f0, %f2
6129 0005fc4 	sw	%r31, 31(%r30)
6130 0005fc8 	addi	%r30, %r30, 32
6131 0005fcc 	jal	fsqr.2638
6132 0005fd0 	addi	%r30, %r30, -32
6133 0005fd4 	lw	%r31, 31(%r30)
6134 0005fd8 	lw.s	%f1, 30(%r30)
6135 0005fdc 	sub.s	%f0, %f1, %f0
6136 0005fe0 	la	%r1, l.6405
6138 0005fe8 	lw.s	%f1, 0(%r1)
6139 0005fec 	lw.s	%f2, 29(%r30)
6140 0005ff0 	sub.s	%f1, %f1, %f2
6141 0005ff4 	sw.s	%f0, 31(%r30)
6142 0005ff8 	mov.s	%f0, %f1
6143 0005ffc 	sw	%r31, 32(%r30)
6144 0006000 	addi	%r30, %r30, 33
6145 0006004 	jal	fsqr.2638
6146 0006008 	addi	%r30, %r30, -33
6147 000600c 	lw	%r31, 32(%r30)
6148 0006010 	lw.s	%f1, 31(%r30)
6149 0006014 	sub.s	%f0, %f1, %f0
6150 0006018 	sw.s	%f0, 32(%r30)
6151 000601c 	sw	%r31, 33(%r30)
6152 0006020 	addi	%r30, %r30, 34
6153 0006024 	jal	fisneg.2632
6154 0006028 	addi	%r30, %r30, -34
6155 000602c 	lw	%r31, 33(%r30)
6156 0006030 	addi	%r26, %r0, 0
6157 0006034 	bne	%r1, %r26, beq_else.9170
6158 0006038 	lw.s	%f0, 32(%r30)
6159 000603c 	mov.s	%f0, %f0
6160 0006040 	j	beq_cont.9171
6161 0006044 beq_else.9170:
6161 0006044 	la	%r1, l.6401
6163 000604c 	lw.s	%f0, 0(%r1)
6164 0006050 beq_cont.9171:
6164 0006050 	la	%r1, l.6972
6166 0006058 	lw.s	%f1, 0(%r1)
6167 000605c 	mul.s	%f0, %f1, %f0
6168 0006060 	la	%r1, l.6974
6170 0006068 	lw.s	%f1, 0(%r1)
6171 000606c 	div.s	%f0, %f0, %f1
6172 0006070 	lw	%r1, 3(%r30)
6173 0006074 	addi	%r1, %r1, 2
6174 0006078 	sw.s	%f0, 0(%r1)
6175 000607c 	jr	%r31
6176 0006080 beq_else.9165:
6176 0006080 	jr	%r31
6177 0006084 add_light.2983:
6177 0006084 	sw.s	%f2, 0(%r30)
6178 0006088 	sw.s	%f1, 1(%r30)
6179 000608c 	sw.s	%f0, 2(%r30)
6180 0006090 	sw	%r31, 3(%r30)
6181 0006094 	addi	%r30, %r30, 4
6182 0006098 	jal	fispos.2630
6183 000609c 	addi	%r30, %r30, -4
6184 00060a0 	lw	%r31, 3(%r30)
6185 00060a4 	la	%r2, const_array.6374
6187 00060ac 	la	%r3, const_array.6376
6189 00060b4 	sw	%r3, 3(%r30)
6190 00060b8 	addi	%r26, %r0, 0
6191 00060bc 	bne	%r1, %r26, beq_else.9174
6192 00060c0 	j	beq_cont.9175
6193 00060c4 beq_else.9174:
6193 00060c4 	lw.s	%f0, 2(%r30)
6194 00060c8 	addi	%r1, %r3, 0
6195 00060cc 	sw	%r31, 4(%r30)
6196 00060d0 	addi	%r30, %r30, 5
6197 00060d4 	jal	vecaccum.2694
6198 00060d8 	addi	%r30, %r30, -5
6199 00060dc 	lw	%r31, 4(%r30)
6200 00060e0 beq_cont.9175:
6200 00060e0 	lw.s	%f0, 1(%r30)
6201 00060e4 	sw	%r31, 4(%r30)
6202 00060e8 	addi	%r30, %r30, 5
6203 00060ec 	jal	fispos.2630
6204 00060f0 	addi	%r30, %r30, -5
6205 00060f4 	lw	%r31, 4(%r30)
6206 00060f8 	addi	%r26, %r0, 0
6207 00060fc 	bne	%r1, %r26, beq_else.9176
6208 0006100 	jr	%r31
6209 0006104 beq_else.9176:
6209 0006104 	lw.s	%f0, 1(%r30)
6210 0006108 	sw	%r31, 4(%r30)
6211 000610c 	addi	%r30, %r30, 5
6212 0006110 	jal	fsqr.2638
6213 0006114 	addi	%r30, %r30, -5
6214 0006118 	lw	%r31, 4(%r30)
6215 000611c 	sw	%r31, 4(%r30)
6216 0006120 	addi	%r30, %r30, 5
6217 0006124 	jal	fsqr.2638
6218 0006128 	addi	%r30, %r30, -5
6219 000612c 	lw	%r31, 4(%r30)
6220 0006130 	lw.s	%f1, 0(%r30)
6221 0006134 	mul.s	%f0, %f0, %f1
6222 0006138 	lw	%r1, 3(%r30)
6223 000613c 	addi	%r2, %r1, 0
6224 0006140 	lw.s	%f1, 0(%r2)
6225 0006144 	add.s	%f1, %f1, %f0
6226 0006148 	addi	%r2, %r1, 0
6227 000614c 	sw.s	%f1, 0(%r2)
6228 0006150 	addi	%r2, %r1, 1
6229 0006154 	lw.s	%f1, 0(%r2)
6230 0006158 	add.s	%f1, %f1, %f0
6231 000615c 	addi	%r2, %r1, 1
6232 0006160 	sw.s	%f1, 0(%r2)
6233 0006164 	addi	%r2, %r1, 2
6234 0006168 	lw.s	%f1, 0(%r2)
6235 000616c 	add.s	%f0, %f1, %f0
6236 0006170 	addi	%r1, %r1, 2
6237 0006174 	sw.s	%f0, 0(%r1)
6238 0006178 	jr	%r31
6239 000617c trace_reflections.2987:
6239 000617c 	lw	%r3, 2(%r27)
6240 0006180 	lw	%r4, 1(%r27)
6241 0006184 	la	%r5, const_array.6399
6243 000618c 	la	%r6, const_array.6373
6245 0006194 	la	%r7, const_array.6369
6247 000619c 	la	%r8, const_array.6372
6249 00061a4 	addi	%r26, %r0, 0
6250 00061a8 	slt	%r28, %r26, %r1
6251 00061ac 	beq	%r28, %r0, bne_else.9179
6252 00061b0 	add	%r5, %r5, %r1
6253 00061b4 	lw	%r5, 0(%r5)
6254 00061b8 	sw	%r27, 0(%r30)
6255 00061bc 	sw	%r1, 1(%r30)
6256 00061c0 	sw.s	%f1, 2(%r30)
6257 00061c4 	sw	%r2, 3(%r30)
6258 00061c8 	sw.s	%f0, 4(%r30)
6259 00061cc 	sw	%r6, 5(%r30)
6260 00061d0 	sw	%r3, 6(%r30)
6261 00061d4 	sw	%r5, 7(%r30)
6262 00061d8 	sw	%r7, 8(%r30)
6263 00061dc 	sw	%r8, 9(%r30)
6264 00061e0 	sw	%r4, 10(%r30)
6265 00061e4 	addi	%r1, %r5, 0
6266 00061e8 	sw	%r31, 11(%r30)
6267 00061ec 	addi	%r30, %r30, 12
6268 00061f0 	jal	r_dvec.2778
6269 00061f4 	addi	%r30, %r30, -12
6270 00061f8 	lw	%r31, 11(%r30)
6271 00061fc 	lw	%r27, 10(%r30)
6272 0006200 	sw	%r1, 11(%r30)
6273 0006204 	sw	%r31, 12(%r30)
6274 0006208 	lw	%r26, 0(%r27)
6275 000620c 	addi	%r30, %r30, 13
6276 0006210 	jalr	%r26
6277 0006214 	addi	%r30, %r30, -13
6278 0006218 	lw	%r31, 12(%r30)
6279 000621c 	addi	%r26, %r0, 0
6280 0006220 	bne	%r1, %r26, beq_else.9180
6281 0006224 	j	beq_cont.9181
6282 0006228 beq_else.9180:
6282 0006228 	lw	%r1, 9(%r30)
6283 000622c 	addi	%r1, %r1, 0
6284 0006230 	lw	%r1, 0(%r1)
6285 0006234 	sll	%r1, %r1, 2
6286 0006238 	lw	%r2, 8(%r30)
6287 000623c 	addi	%r2, %r2, 0
6288 0006240 	lw	%r2, 0(%r2)
6289 0006244 	add	%r1, %r1, %r2
6290 0006248 	lw	%r2, 7(%r30)
6291 000624c 	sw	%r1, 12(%r30)
6292 0006250 	addi	%r1, %r2, 0
6293 0006254 	sw	%r31, 13(%r30)
6294 0006258 	addi	%r30, %r30, 14
6295 000625c 	jal	r_surface_id.2776
6296 0006260 	addi	%r30, %r30, -14
6297 0006264 	lw	%r31, 13(%r30)
6298 0006268 	lw	%r2, 12(%r30)
6299 000626c 	bne	%r2, %r1, be_else.9182
6300 0006270 	addi	%r1, %r0, 0
6301 0006274 	lw	%r2, 6(%r30)
6302 0006278 	addi	%r2, %r2, 0
6303 000627c 	lw	%r2, 0(%r2)
6304 0006280 	sw	%r31, 13(%r30)
6305 0006284 	addi	%r30, %r30, 14
6306 0006288 	jal	shadow_check_one_or_matrix.2940
6307 000628c 	addi	%r30, %r30, -14
6308 0006290 	lw	%r31, 13(%r30)
6309 0006294 	addi	%r26, %r0, 0
6310 0006298 	bne	%r1, %r26, beq_else.9184
6311 000629c 	lw	%r1, 11(%r30)
6312 00062a0 	sw	%r31, 13(%r30)
6313 00062a4 	addi	%r30, %r30, 14
6314 00062a8 	jal	d_vec.2772
6315 00062ac 	addi	%r30, %r30, -14
6316 00062b0 	lw	%r31, 13(%r30)
6317 00062b4 	addi	%r2, %r1, 0
6318 00062b8 	lw	%r1, 5(%r30)
6319 00062bc 	sw	%r31, 13(%r30)
6320 00062c0 	addi	%r30, %r30, 14
6321 00062c4 	jal	veciprod.2686
6322 00062c8 	addi	%r30, %r30, -14
6323 00062cc 	lw	%r31, 13(%r30)
6324 00062d0 	lw	%r1, 7(%r30)
6325 00062d4 	sw.s	%f0, 13(%r30)
6326 00062d8 	sw	%r31, 14(%r30)
6327 00062dc 	addi	%r30, %r30, 15
6328 00062e0 	jal	r_bright.2780
6329 00062e4 	addi	%r30, %r30, -15
6330 00062e8 	lw	%r31, 14(%r30)
6331 00062ec 	lw.s	%f1, 4(%r30)
6332 00062f0 	mul.s	%f2, %f0, %f1
6333 00062f4 	lw.s	%f3, 13(%r30)
6334 00062f8 	mul.s	%f2, %f2, %f3
6335 00062fc 	lw	%r1, 11(%r30)
6336 0006300 	sw.s	%f2, 14(%r30)
6337 0006304 	sw.s	%f0, 15(%r30)
6338 0006308 	sw	%r31, 16(%r30)
6339 000630c 	addi	%r30, %r30, 17
6340 0006310 	jal	d_vec.2772
6341 0006314 	addi	%r30, %r30, -17
6342 0006318 	lw	%r31, 16(%r30)
6343 000631c 	addi	%r2, %r1, 0
6344 0006320 	lw	%r1, 3(%r30)
6345 0006324 	sw	%r31, 16(%r30)
6346 0006328 	addi	%r30, %r30, 17
6347 000632c 	jal	veciprod.2686
6348 0006330 	addi	%r30, %r30, -17
6349 0006334 	lw	%r31, 16(%r30)
6350 0006338 	lw.s	%f1, 15(%r30)
6351 000633c 	mul.s	%f1, %f1, %f0
6352 0006340 	lw.s	%f0, 14(%r30)
6353 0006344 	lw.s	%f2, 2(%r30)
6354 0006348 	sw	%r31, 16(%r30)
6355 000634c 	addi	%r30, %r30, 17
6356 0006350 	jal	add_light.2983
6357 0006354 	addi	%r30, %r30, -17
6358 0006358 	lw	%r31, 16(%r30)
6359 000635c 	j	beq_cont.9185
6360 0006360 beq_else.9184:
6360 0006360 beq_cont.9185:
6360 0006360 	j	be_cont.9183
6361 0006364 be_else.9182:
6361 0006364 be_cont.9183:
6361 0006364 beq_cont.9181:
6361 0006364 	lw	%r1, 1(%r30)
6362 0006368 	addi	%r1, %r1, -1
6363 000636c 	lw.s	%f0, 4(%r30)
6364 0006370 	lw.s	%f1, 2(%r30)
6365 0006374 	lw	%r2, 3(%r30)
6366 0006378 	lw	%r27, 0(%r30)
6367 000637c 	lw	%r26, 0(%r27)
6368 0006380 	jr	%r26
6369 0006384 bne_else.9179:
6369 0006384 	jr	%r31
6370 0006388 trace_ray.2992:
6370 0006388 	lw	%r4, 3(%r27)
6371 000638c 	lw	%r5, 2(%r27)
6372 0006390 	lw	%r6, 1(%r27)
6373 0006394 	la	%r7, const_array.6370
6375 000639c 	la	%r8, const_array.6374
6377 00063a4 	la	%r9, const_array.6380
6379 00063ac 	la	%r10, const_array.6376
6381 00063b4 	la	%r11, const_array.6361
6383 00063bc 	la	%r12, const_array.6373
6385 00063c4 	la	%r13, const_array.6400
6387 00063cc 	la	%r14, const_array.6364
6389 00063d4 	la	%r15, const_array.6369
6391 00063dc 	la	%r16, const_array.6371
6393 00063e4 	la	%r17, const_array.6372
6395 00063ec 	la	%r18, const_array.6365
6397 00063f4 	slti	%r28, %r1, 4
6398 00063f8 	beq	%r28, %r0, bne_else.9187
6399 00063fc 	sw	%r27, 0(%r30)
6400 0006400 	sw.s	%f1, 1(%r30)
6401 0006404 	sw	%r7, 2(%r30)
6402 0006408 	sw	%r4, 3(%r30)
6403 000640c 	sw	%r13, 4(%r30)
6404 0006410 	sw	%r5, 5(%r30)
6405 0006414 	sw	%r12, 6(%r30)
6406 0006418 	sw	%r8, 7(%r30)
6407 000641c 	sw	%r3, 8(%r30)
6408 0006420 	sw	%r15, 9(%r30)
6409 0006424 	sw	%r16, 10(%r30)
6410 0006428 	sw	%r9, 11(%r30)
6411 000642c 	sw	%r11, 12(%r30)
6412 0006430 	sw	%r17, 13(%r30)
6413 0006434 	sw	%r10, 14(%r30)
6414 0006438 	sw	%r18, 15(%r30)
6415 000643c 	sw.s	%f0, 16(%r30)
6416 0006440 	sw	%r14, 17(%r30)
6417 0006444 	sw	%r2, 18(%r30)
6418 0006448 	sw	%r1, 19(%r30)
6419 000644c 	sw	%r6, 20(%r30)
6420 0006450 	addi	%r1, %r3, 0
6421 0006454 	sw	%r31, 21(%r30)
6422 0006458 	addi	%r30, %r30, 22
6423 000645c 	jal	p_surface_ids.2757
6424 0006460 	addi	%r30, %r30, -22
6425 0006464 	lw	%r31, 21(%r30)
6426 0006468 	lw	%r2, 18(%r30)
6427 000646c 	lw	%r27, 20(%r30)
6428 0006470 	sw	%r1, 21(%r30)
6429 0006474 	addi	%r1, %r2, 0
6430 0006478 	sw	%r31, 22(%r30)
6431 000647c 	lw	%r26, 0(%r27)
6432 0006480 	addi	%r30, %r30, 23
6433 0006484 	jalr	%r26
6434 0006488 	addi	%r30, %r30, -23
6435 000648c 	lw	%r31, 22(%r30)
6436 0006490 	addi	%r26, %r0, 0
6437 0006494 	bne	%r1, %r26, beq_else.9188
6438 0006498 	addi	%r1, %r0, -1
6439 000649c 	lw	%r2, 19(%r30)
6440 00064a0 	lw	%r3, 21(%r30)
6441 00064a4 	add	%r3, %r3, %r2
6442 00064a8 	sw	%r1, 0(%r3)
6443 00064ac 	addi	%r26, %r0, 0
6444 00064b0 	bne	%r2, %r26, beq_else.9189
6445 00064b4 	jr	%r31
6446 00064b8 beq_else.9189:
6446 00064b8 	lw	%r1, 18(%r30)
6447 00064bc 	lw	%r2, 17(%r30)
6448 00064c0 	sw	%r31, 22(%r30)
6449 00064c4 	addi	%r30, %r30, 23
6450 00064c8 	jal	veciprod.2686
6451 00064cc 	addi	%r30, %r30, -23
6452 00064d0 	lw	%r31, 22(%r30)
6453 00064d4 	sw	%r31, 22(%r30)
6454 00064d8 	addi	%r30, %r30, 23
6455 00064dc 	jal	min_caml_fneg
6456 00064e0 	addi	%r30, %r30, -23
6457 00064e4 	lw	%r31, 22(%r30)
6458 00064e8 	sw.s	%f0, 22(%r30)
6459 00064ec 	sw	%r31, 23(%r30)
6460 00064f0 	addi	%r30, %r30, 24
6461 00064f4 	jal	fispos.2630
6462 00064f8 	addi	%r30, %r30, -24
6463 00064fc 	lw	%r31, 23(%r30)
6464 0006500 	addi	%r26, %r0, 0
6465 0006504 	bne	%r1, %r26, beq_else.9191
6466 0006508 	jr	%r31
6467 000650c beq_else.9191:
6467 000650c 	lw.s	%f0, 22(%r30)
6468 0006510 	sw	%r31, 23(%r30)
6469 0006514 	addi	%r30, %r30, 24
6470 0006518 	jal	fsqr.2638
6471 000651c 	addi	%r30, %r30, -24
6472 0006520 	lw	%r31, 23(%r30)
6473 0006524 	lw.s	%f1, 22(%r30)
6474 0006528 	mul.s	%f0, %f0, %f1
6475 000652c 	lw.s	%f1, 16(%r30)
6476 0006530 	mul.s	%f0, %f0, %f1
6477 0006534 	lw	%r1, 15(%r30)
6478 0006538 	addi	%r1, %r1, 0
6479 000653c 	lw.s	%f1, 0(%r1)
6480 0006540 	mul.s	%f0, %f0, %f1
6481 0006544 	lw	%r1, 14(%r30)
6482 0006548 	addi	%r2, %r1, 0
6483 000654c 	lw.s	%f1, 0(%r2)
6484 0006550 	add.s	%f1, %f1, %f0
6485 0006554 	addi	%r2, %r1, 0
6486 0006558 	sw.s	%f1, 0(%r2)
6487 000655c 	addi	%r2, %r1, 1
6488 0006560 	lw.s	%f1, 0(%r2)
6489 0006564 	add.s	%f1, %f1, %f0
6490 0006568 	addi	%r2, %r1, 1
6491 000656c 	sw.s	%f1, 0(%r2)
6492 0006570 	addi	%r2, %r1, 2
6493 0006574 	lw.s	%f1, 0(%r2)
6494 0006578 	add.s	%f0, %f1, %f0
6495 000657c 	addi	%r1, %r1, 2
6496 0006580 	sw.s	%f0, 0(%r1)
6497 0006584 	jr	%r31
6498 0006588 beq_else.9188:
6498 0006588 	lw	%r1, 13(%r30)
6499 000658c 	addi	%r1, %r1, 0
6500 0006590 	lw	%r1, 0(%r1)
6501 0006594 	lw	%r2, 12(%r30)
6502 0006598 	add	%r2, %r2, %r1
6503 000659c 	lw	%r2, 0(%r2)
6504 00065a0 	sw	%r1, 23(%r30)
6505 00065a4 	sw	%r2, 24(%r30)
6506 00065a8 	addi	%r1, %r2, 0
6507 00065ac 	sw	%r31, 25(%r30)
6508 00065b0 	addi	%r30, %r30, 26
6509 00065b4 	jal	o_reflectiontype.2715
6510 00065b8 	addi	%r30, %r30, -26
6511 00065bc 	lw	%r31, 25(%r30)
6512 00065c0 	lw	%r2, 24(%r30)
6513 00065c4 	sw	%r1, 25(%r30)
6514 00065c8 	addi	%r1, %r2, 0
6515 00065cc 	sw	%r31, 26(%r30)
6516 00065d0 	addi	%r30, %r30, 27
6517 00065d4 	jal	o_diffuse.2735
6518 00065d8 	addi	%r30, %r30, -27
6519 00065dc 	lw	%r31, 26(%r30)
6520 00065e0 	lw.s	%f1, 16(%r30)
6521 00065e4 	mul.s	%f0, %f0, %f1
6522 00065e8 	lw	%r1, 24(%r30)
6523 00065ec 	lw	%r2, 18(%r30)
6524 00065f0 	sw.s	%f0, 26(%r30)
6525 00065f4 	sw	%r31, 27(%r30)
6526 00065f8 	addi	%r30, %r30, 28
6527 00065fc 	jal	get_nvector.2977
6528 0006600 	addi	%r30, %r30, -28
6529 0006604 	lw	%r31, 27(%r30)
6530 0006608 	lw	%r1, 11(%r30)
6531 000660c 	lw	%r2, 10(%r30)
6532 0006610 	sw	%r31, 27(%r30)
6533 0006614 	addi	%r30, %r30, 28
6534 0006618 	jal	veccpy.2675
6535 000661c 	addi	%r30, %r30, -28
6536 0006620 	lw	%r31, 27(%r30)
6537 0006624 	lw	%r1, 24(%r30)
6538 0006628 	lw	%r2, 10(%r30)
6539 000662c 	sw	%r31, 27(%r30)
6540 0006630 	addi	%r30, %r30, 28
6541 0006634 	jal	utexture.2980
6542 0006638 	addi	%r30, %r30, -28
6543 000663c 	lw	%r31, 27(%r30)
6544 0006640 	lw	%r1, 23(%r30)
6545 0006644 	sll	%r1, %r1, 2
6546 0006648 	lw	%r2, 9(%r30)
6547 000664c 	addi	%r2, %r2, 0
6548 0006650 	lw	%r2, 0(%r2)
6549 0006654 	add	%r1, %r1, %r2
6550 0006658 	lw	%r2, 19(%r30)
6551 000665c 	lw	%r3, 21(%r30)
6552 0006660 	add	%r4, %r3, %r2
6553 0006664 	sw	%r1, 0(%r4)
6554 0006668 	lw	%r1, 8(%r30)
6555 000666c 	sw	%r31, 27(%r30)
6556 0006670 	addi	%r30, %r30, 28
6557 0006674 	jal	p_intersection_points.2755
6558 0006678 	addi	%r30, %r30, -28
6559 000667c 	lw	%r31, 27(%r30)
6560 0006680 	lw	%r2, 19(%r30)
6561 0006684 	add	%r1, %r1, %r2
6562 0006688 	lw	%r1, 0(%r1)
6563 000668c 	lw	%r3, 10(%r30)
6564 0006690 	addi	%r2, %r3, 0
6565 0006694 	sw	%r31, 27(%r30)
6566 0006698 	addi	%r30, %r30, 28
6567 000669c 	jal	veccpy.2675
6568 00066a0 	addi	%r30, %r30, -28
6569 00066a4 	lw	%r31, 27(%r30)
6570 00066a8 	lw	%r1, 8(%r30)
6571 00066ac 	sw	%r31, 27(%r30)
6572 00066b0 	addi	%r30, %r30, 28
6573 00066b4 	jal	p_calc_diffuse.2759
6574 00066b8 	addi	%r30, %r30, -28
6575 00066bc 	lw	%r31, 27(%r30)
6576 00066c0 	lw	%r2, 24(%r30)
6577 00066c4 	sw	%r1, 27(%r30)
6578 00066c8 	addi	%r1, %r2, 0
6579 00066cc 	sw	%r31, 28(%r30)
6580 00066d0 	addi	%r30, %r30, 29
6581 00066d4 	jal	o_diffuse.2735
6582 00066d8 	addi	%r30, %r30, -29
6583 00066dc 	lw	%r31, 28(%r30)
6584 00066e0 	la	%r1, l.6405
6586 00066e8 	lw.s	%f1, 0(%r1)
6587 00066ec 	sw	%r31, 28(%r30)
6588 00066f0 	addi	%r30, %r30, 29
6589 00066f4 	jal	fless.2627
6590 00066f8 	addi	%r30, %r30, -29
6591 00066fc 	lw	%r31, 28(%r30)
6592 0006700 	addi	%r26, %r0, 0
6593 0006704 	bne	%r1, %r26, beq_else.9194
6594 0006708 	addi	%r1, %r0, 1
6595 000670c 	lw	%r2, 19(%r30)
6596 0006710 	lw	%r3, 27(%r30)
6597 0006714 	add	%r3, %r3, %r2
6598 0006718 	sw	%r1, 0(%r3)
6599 000671c 	lw	%r1, 8(%r30)
6600 0006720 	sw	%r31, 28(%r30)
6601 0006724 	addi	%r30, %r30, 29
6602 0006728 	jal	p_energy.2761
6603 000672c 	addi	%r30, %r30, -29
6604 0006730 	lw	%r31, 28(%r30)
6605 0006734 	lw	%r2, 19(%r30)
6606 0006738 	add	%r3, %r1, %r2
6607 000673c 	lw	%r3, 0(%r3)
6608 0006740 	lw	%r4, 7(%r30)
6609 0006744 	sw	%r1, 28(%r30)
6610 0006748 	addi	%r2, %r4, 0
6611 000674c 	addi	%r1, %r3, 0
6612 0006750 	sw	%r31, 29(%r30)
6613 0006754 	addi	%r30, %r30, 30
6614 0006758 	jal	veccpy.2675
6615 000675c 	addi	%r30, %r30, -30
6616 0006760 	lw	%r31, 29(%r30)
6617 0006764 	lw	%r1, 19(%r30)
6618 0006768 	lw	%r2, 28(%r30)
6619 000676c 	add	%r2, %r2, %r1
6620 0006770 	lw	%r2, 0(%r2)
6621 0006774 	la	%r3, l.7030
6623 000677c 	lw.s	%f0, 0(%r3)
6624 0006780 	lw.s	%f1, 26(%r30)
6625 0006784 	mul.s	%f0, %f0, %f1
6626 0006788 	addi	%r1, %r2, 0
6627 000678c 	sw	%r31, 29(%r30)
6628 0006790 	addi	%r30, %r30, 30
6629 0006794 	jal	vecscale.2704
6630 0006798 	addi	%r30, %r30, -30
6631 000679c 	lw	%r31, 29(%r30)
6632 00067a0 	lw	%r1, 8(%r30)
6633 00067a4 	sw	%r31, 29(%r30)
6634 00067a8 	addi	%r30, %r30, 30
6635 00067ac 	jal	p_nvectors.2770
6636 00067b0 	addi	%r30, %r30, -30
6637 00067b4 	lw	%r31, 29(%r30)
6638 00067b8 	lw	%r2, 19(%r30)
6639 00067bc 	add	%r1, %r1, %r2
6640 00067c0 	lw	%r1, 0(%r1)
6641 00067c4 	lw	%r3, 6(%r30)
6642 00067c8 	addi	%r2, %r3, 0
6643 00067cc 	sw	%r31, 29(%r30)
6644 00067d0 	addi	%r30, %r30, 30
6645 00067d4 	jal	veccpy.2675
6646 00067d8 	addi	%r30, %r30, -30
6647 00067dc 	lw	%r31, 29(%r30)
6648 00067e0 	j	beq_cont.9195
6649 00067e4 beq_else.9194:
6649 00067e4 	addi	%r1, %r0, 0
6650 00067e8 	lw	%r2, 19(%r30)
6651 00067ec 	lw	%r3, 27(%r30)
6652 00067f0 	add	%r3, %r3, %r2
6653 00067f4 	sw	%r1, 0(%r3)
6654 00067f8 beq_cont.9195:
6654 00067f8 	la	%r1, l.7033
6656 0006800 	lw.s	%f0, 0(%r1)
6657 0006804 	lw	%r1, 18(%r30)
6658 0006808 	lw	%r2, 6(%r30)
6659 000680c 	sw.s	%f0, 29(%r30)
6660 0006810 	sw	%r31, 30(%r30)
6661 0006814 	addi	%r30, %r30, 31
6662 0006818 	jal	veciprod.2686
6663 000681c 	addi	%r30, %r30, -31
6664 0006820 	lw	%r31, 30(%r30)
6665 0006824 	lw.s	%f1, 29(%r30)
6666 0006828 	mul.s	%f0, %f1, %f0
6667 000682c 	lw	%r1, 18(%r30)
6668 0006830 	lw	%r2, 6(%r30)
6669 0006834 	sw	%r31, 30(%r30)
6670 0006838 	addi	%r30, %r30, 31
6671 000683c 	jal	vecaccum.2694
6672 0006840 	addi	%r30, %r30, -31
6673 0006844 	lw	%r31, 30(%r30)
6674 0006848 	lw	%r1, 24(%r30)
6675 000684c 	sw	%r31, 30(%r30)
6676 0006850 	addi	%r30, %r30, 31
6677 0006854 	jal	o_hilight.2737
6678 0006858 	addi	%r30, %r30, -31
6679 000685c 	lw	%r31, 30(%r30)
6680 0006860 	lw.s	%f1, 16(%r30)
6681 0006864 	mul.s	%f0, %f1, %f0
6682 0006868 	addi	%r1, %r0, 0
6683 000686c 	lw	%r2, 5(%r30)
6684 0006870 	addi	%r2, %r2, 0
6685 0006874 	lw	%r2, 0(%r2)
6686 0006878 	sw.s	%f0, 30(%r30)
6687 000687c 	sw	%r31, 31(%r30)
6688 0006880 	addi	%r30, %r30, 32
6689 0006884 	jal	shadow_check_one_or_matrix.2940
6690 0006888 	addi	%r30, %r30, -32
6691 000688c 	lw	%r31, 31(%r30)
6692 0006890 	addi	%r26, %r0, 0
6693 0006894 	bne	%r1, %r26, beq_else.9196
6694 0006898 	lw	%r1, 6(%r30)
6695 000689c 	lw	%r2, 17(%r30)
6696 00068a0 	sw	%r31, 31(%r30)
6697 00068a4 	addi	%r30, %r30, 32
6698 00068a8 	jal	veciprod.2686
6699 00068ac 	addi	%r30, %r30, -32
6700 00068b0 	lw	%r31, 31(%r30)
6701 00068b4 	sw	%r31, 31(%r30)
6702 00068b8 	addi	%r30, %r30, 32
6703 00068bc 	jal	min_caml_fneg
6704 00068c0 	addi	%r30, %r30, -32
6705 00068c4 	lw	%r31, 31(%r30)
6706 00068c8 	lw.s	%f1, 26(%r30)
6707 00068cc 	mul.s	%f0, %f0, %f1
6708 00068d0 	lw	%r1, 18(%r30)
6709 00068d4 	lw	%r2, 17(%r30)
6710 00068d8 	sw.s	%f0, 31(%r30)
6711 00068dc 	sw	%r31, 32(%r30)
6712 00068e0 	addi	%r30, %r30, 33
6713 00068e4 	jal	veciprod.2686
6714 00068e8 	addi	%r30, %r30, -33
6715 00068ec 	lw	%r31, 32(%r30)
6716 00068f0 	sw	%r31, 32(%r30)
6717 00068f4 	addi	%r30, %r30, 33
6718 00068f8 	jal	min_caml_fneg
6719 00068fc 	addi	%r30, %r30, -33
6720 0006900 	lw	%r31, 32(%r30)
6721 0006904 	mov.s	%f1, %f0
6722 0006908 	lw.s	%f0, 31(%r30)
6723 000690c 	lw.s	%f2, 30(%r30)
6724 0006910 	sw	%r31, 32(%r30)
6725 0006914 	addi	%r30, %r30, 33
6726 0006918 	jal	add_light.2983
6727 000691c 	addi	%r30, %r30, -33
6728 0006920 	lw	%r31, 32(%r30)
6729 0006924 	j	beq_cont.9197
6730 0006928 beq_else.9196:
6730 0006928 beq_cont.9197:
6730 0006928 	lw	%r1, 10(%r30)
6731 000692c 	sw	%r31, 32(%r30)
6732 0006930 	addi	%r30, %r30, 33
6733 0006934 	jal	setup_startp.2906
6734 0006938 	addi	%r30, %r30, -33
6735 000693c 	lw	%r31, 32(%r30)
6736 0006940 	lw	%r1, 4(%r30)
6737 0006944 	addi	%r1, %r1, 0
6738 0006948 	lw	%r1, 0(%r1)
6739 000694c 	addi	%r1, %r1, -1
6740 0006950 	lw.s	%f0, 26(%r30)
6741 0006954 	lw.s	%f1, 30(%r30)
6742 0006958 	lw	%r2, 18(%r30)
6743 000695c 	lw	%r27, 3(%r30)
6744 0006960 	sw	%r31, 32(%r30)
6745 0006964 	lw	%r26, 0(%r27)
6746 0006968 	addi	%r30, %r30, 33
6747 000696c 	jalr	%r26
6748 0006970 	addi	%r30, %r30, -33
6749 0006974 	lw	%r31, 32(%r30)
6750 0006978 	la	%r1, l.7037
6752 0006980 	lw.s	%f0, 0(%r1)
6753 0006984 	lw.s	%f1, 16(%r30)
6754 0006988 	sw	%r31, 32(%r30)
6755 000698c 	addi	%r30, %r30, 33
6756 0006990 	jal	fless.2627
6757 0006994 	addi	%r30, %r30, -33
6758 0006998 	lw	%r31, 32(%r30)
6759 000699c 	addi	%r26, %r0, 0
6760 00069a0 	bne	%r1, %r26, beq_else.9198
6761 00069a4 	jr	%r31
6762 00069a8 beq_else.9198:
6762 00069a8 	lw	%r1, 19(%r30)
6763 00069ac 	addi	%r26, %r0, 4
6764 00069b0 	slt	%r28, %r26, %r1
6765 00069b4 	beq	%r28, %r0, bne_else.9200
6766 00069b8 	j	bne_cont.9201
6767 00069bc bne_else.9200:
6767 00069bc 	addi	%r2, %r1, 1
6768 00069c0 	addi	%r3, %r0, -1
6769 00069c4 	lw	%r4, 21(%r30)
6770 00069c8 	add	%r2, %r4, %r2
6771 00069cc 	sw	%r3, 0(%r2)
6772 00069d0 bne_cont.9201:
6772 00069d0 	lw	%r2, 25(%r30)
6773 00069d4 	addi	%r26, %r0, 2
6774 00069d8 	bne	%r2, %r26, beq_else.9202
6775 00069dc 	la	%r2, l.6407
6777 00069e4 	lw.s	%f0, 0(%r2)
6778 00069e8 	lw	%r2, 24(%r30)
6779 00069ec 	sw.s	%f0, 32(%r30)
6780 00069f0 	addi	%r1, %r2, 0
6781 00069f4 	sw	%r31, 33(%r30)
6782 00069f8 	addi	%r30, %r30, 34
6783 00069fc 	jal	o_diffuse.2735
6784 0006a00 	addi	%r30, %r30, -34
6785 0006a04 	lw	%r31, 33(%r30)
6786 0006a08 	lw.s	%f1, 32(%r30)
6787 0006a0c 	sub.s	%f0, %f1, %f0
6788 0006a10 	lw.s	%f1, 16(%r30)
6789 0006a14 	mul.s	%f0, %f1, %f0
6790 0006a18 	lw	%r1, 19(%r30)
6791 0006a1c 	addi	%r1, %r1, 1
6792 0006a20 	lw	%r2, 2(%r30)
6793 0006a24 	addi	%r2, %r2, 0
6794 0006a28 	lw.s	%f1, 0(%r2)
6795 0006a2c 	lw.s	%f2, 1(%r30)
6796 0006a30 	add.s	%f1, %f2, %f1
6797 0006a34 	lw	%r2, 18(%r30)
6798 0006a38 	lw	%r3, 8(%r30)
6799 0006a3c 	lw	%r27, 0(%r30)
6800 0006a40 	lw	%r26, 0(%r27)
6801 0006a44 	jr	%r26
6802 0006a48 beq_else.9202:
6802 0006a48 	jr	%r31
6803 0006a4c bne_else.9187:
6803 0006a4c 	jr	%r31
6804 0006a50 trace_diffuse_ray.2998:
6804 0006a50 	lw	%r2, 2(%r27)
6805 0006a54 	lw	%r27, 1(%r27)
6806 0006a58 	sw.s	%f0, 0(%r30)
6807 0006a5c 	sw	%r2, 1(%r30)
6808 0006a60 	sw	%r1, 2(%r30)
6809 0006a64 	sw	%r31, 3(%r30)
6810 0006a68 	lw	%r26, 0(%r27)
6811 0006a6c 	addi	%r30, %r30, 4
6812 0006a70 	jalr	%r26
6813 0006a74 	addi	%r30, %r30, -4
6814 0006a78 	lw	%r31, 3(%r30)
6815 0006a7c 	la	%r2, const_array.6374
6817 0006a84 	la	%r3, const_array.6361
6819 0006a8c 	la	%r4, const_array.6373
6821 0006a94 	la	%r5, const_array.6364
6823 0006a9c 	la	%r6, const_array.6371
6825 0006aa4 	la	%r7, const_array.6372
6827 0006aac 	la	%r8, const_array.6375
6829 0006ab4 	addi	%r26, %r0, 0
6830 0006ab8 	bne	%r1, %r26, beq_else.9205
6831 0006abc 	jr	%r31
6832 0006ac0 beq_else.9205:
6832 0006ac0 	addi	%r1, %r7, 0
6833 0006ac4 	lw	%r1, 0(%r1)
6834 0006ac8 	add	%r1, %r3, %r1
6835 0006acc 	lw	%r1, 0(%r1)
6836 0006ad0 	lw	%r3, 2(%r30)
6837 0006ad4 	sw	%r2, 3(%r30)
6838 0006ad8 	sw	%r8, 4(%r30)
6839 0006adc 	sw	%r5, 5(%r30)
6840 0006ae0 	sw	%r4, 6(%r30)
6841 0006ae4 	sw	%r6, 7(%r30)
6842 0006ae8 	sw	%r1, 8(%r30)
6843 0006aec 	addi	%r1, %r3, 0
6844 0006af0 	sw	%r31, 9(%r30)
6845 0006af4 	addi	%r30, %r30, 10
6846 0006af8 	jal	d_vec.2772
6847 0006afc 	addi	%r30, %r30, -10
6848 0006b00 	lw	%r31, 9(%r30)
6849 0006b04 	addi	%r2, %r1, 0
6850 0006b08 	lw	%r1, 8(%r30)
6851 0006b0c 	sw	%r31, 9(%r30)
6852 0006b10 	addi	%r30, %r30, 10
6853 0006b14 	jal	get_nvector.2977
6854 0006b18 	addi	%r30, %r30, -10
6855 0006b1c 	lw	%r31, 9(%r30)
6856 0006b20 	lw	%r1, 8(%r30)
6857 0006b24 	lw	%r2, 7(%r30)
6858 0006b28 	sw	%r31, 9(%r30)
6859 0006b2c 	addi	%r30, %r30, 10
6860 0006b30 	jal	utexture.2980
6861 0006b34 	addi	%r30, %r30, -10
6862 0006b38 	lw	%r31, 9(%r30)
6863 0006b3c 	addi	%r1, %r0, 0
6864 0006b40 	lw	%r2, 1(%r30)
6865 0006b44 	addi	%r2, %r2, 0
6866 0006b48 	lw	%r2, 0(%r2)
6867 0006b4c 	sw	%r31, 9(%r30)
6868 0006b50 	addi	%r30, %r30, 10
6869 0006b54 	jal	shadow_check_one_or_matrix.2940
6870 0006b58 	addi	%r30, %r30, -10
6871 0006b5c 	lw	%r31, 9(%r30)
6872 0006b60 	addi	%r26, %r0, 0
6873 0006b64 	bne	%r1, %r26, beq_else.9207
6874 0006b68 	lw	%r1, 6(%r30)
6875 0006b6c 	lw	%r2, 5(%r30)
6876 0006b70 	sw	%r31, 9(%r30)
6877 0006b74 	addi	%r30, %r30, 10
6878 0006b78 	jal	veciprod.2686
6879 0006b7c 	addi	%r30, %r30, -10
6880 0006b80 	lw	%r31, 9(%r30)
6881 0006b84 	sw	%r31, 9(%r30)
6882 0006b88 	addi	%r30, %r30, 10
6883 0006b8c 	jal	min_caml_fneg
6884 0006b90 	addi	%r30, %r30, -10
6885 0006b94 	lw	%r31, 9(%r30)
6886 0006b98 	sw.s	%f0, 9(%r30)
6887 0006b9c 	sw	%r31, 10(%r30)
6888 0006ba0 	addi	%r30, %r30, 11
6889 0006ba4 	jal	fispos.2630
6890 0006ba8 	addi	%r30, %r30, -11
6891 0006bac 	lw	%r31, 10(%r30)
6892 0006bb0 	addi	%r26, %r0, 0
6893 0006bb4 	bne	%r1, %r26, beq_else.9208
6894 0006bb8 	la	%r1, l.6401
6896 0006bc0 	lw.s	%f0, 0(%r1)
6897 0006bc4 	j	beq_cont.9209
6898 0006bc8 beq_else.9208:
6898 0006bc8 	lw.s	%f0, 9(%r30)
6899 0006bcc 	mov.s	%f0, %f0
6900 0006bd0 beq_cont.9209:
6900 0006bd0 	lw.s	%f1, 0(%r30)
6901 0006bd4 	mul.s	%f0, %f1, %f0
6902 0006bd8 	lw	%r1, 8(%r30)
6903 0006bdc 	sw.s	%f0, 10(%r30)
6904 0006be0 	sw	%r31, 11(%r30)
6905 0006be4 	addi	%r30, %r30, 12
6906 0006be8 	jal	o_diffuse.2735
6907 0006bec 	addi	%r30, %r30, -12
6908 0006bf0 	lw	%r31, 11(%r30)
6909 0006bf4 	lw.s	%f1, 10(%r30)
6910 0006bf8 	mul.s	%f0, %f1, %f0
6911 0006bfc 	lw	%r1, 4(%r30)
6912 0006c00 	lw	%r2, 3(%r30)
6913 0006c04 	j	vecaccum.2694
6914 0006c08 beq_else.9207:
6914 0006c08 	jr	%r31
6915 0006c0c iter_trace_diffuse_rays.3001:
6915 0006c0c 	lw	%r5, 1(%r27)
6916 0006c10 	addi	%r26, %r0, 0
6917 0006c14 	slt	%r28, %r26, %r4
6918 0006c18 	beq	%r28, %r0, bne_else.9211
6919 0006c1c 	add	%r6, %r1, %r4
6920 0006c20 	lw	%r6, 0(%r6)
6921 0006c24 	sw	%r3, 0(%r30)
6922 0006c28 	sw	%r2, 1(%r30)
6923 0006c2c 	sw	%r27, 2(%r30)
6924 0006c30 	sw	%r5, 3(%r30)
6925 0006c34 	sw	%r4, 4(%r30)
6926 0006c38 	sw	%r1, 5(%r30)
6927 0006c3c 	addi	%r1, %r6, 0
6928 0006c40 	sw	%r31, 6(%r30)
6929 0006c44 	addi	%r30, %r30, 7
6930 0006c48 	jal	d_vec.2772
6931 0006c4c 	addi	%r30, %r30, -7
6932 0006c50 	lw	%r31, 6(%r30)
6933 0006c54 	lw	%r2, 1(%r30)
6934 0006c58 	sw	%r31, 6(%r30)
6935 0006c5c 	addi	%r30, %r30, 7
6936 0006c60 	jal	veciprod.2686
6937 0006c64 	addi	%r30, %r30, -7
6938 0006c68 	lw	%r31, 6(%r30)
6939 0006c6c 	sw.s	%f0, 6(%r30)
6940 0006c70 	sw	%r31, 7(%r30)
6941 0006c74 	addi	%r30, %r30, 8
6942 0006c78 	jal	fisneg.2632
6943 0006c7c 	addi	%r30, %r30, -8
6944 0006c80 	lw	%r31, 7(%r30)
6945 0006c84 	addi	%r26, %r0, 0
6946 0006c88 	bne	%r1, %r26, beq_else.9212
6947 0006c8c 	lw	%r1, 4(%r30)
6948 0006c90 	lw	%r2, 5(%r30)
6949 0006c94 	add	%r3, %r2, %r1
6950 0006c98 	lw	%r3, 0(%r3)
6951 0006c9c 	la	%r4, l.7059
6953 0006ca4 	lw.s	%f0, 0(%r4)
6954 0006ca8 	lw.s	%f1, 6(%r30)
6955 0006cac 	div.s	%f0, %f1, %f0
6956 0006cb0 	lw	%r27, 3(%r30)
6957 0006cb4 	addi	%r1, %r3, 0
6958 0006cb8 	sw	%r31, 7(%r30)
6959 0006cbc 	lw	%r26, 0(%r27)
6960 0006cc0 	addi	%r30, %r30, 8
6961 0006cc4 	jalr	%r26
6962 0006cc8 	addi	%r30, %r30, -8
6963 0006ccc 	lw	%r31, 7(%r30)
6964 0006cd0 	j	beq_cont.9213
6965 0006cd4 beq_else.9212:
6965 0006cd4 	lw	%r1, 4(%r30)
6966 0006cd8 	addi	%r2, %r1, 1
6967 0006cdc 	lw	%r3, 5(%r30)
6968 0006ce0 	add	%r2, %r3, %r2
6969 0006ce4 	lw	%r2, 0(%r2)
6970 0006ce8 	la	%r4, l.7056
6972 0006cf0 	lw.s	%f0, 0(%r4)
6973 0006cf4 	lw.s	%f1, 6(%r30)
6974 0006cf8 	div.s	%f0, %f1, %f0
6975 0006cfc 	lw	%r27, 3(%r30)
6976 0006d00 	addi	%r1, %r2, 0
6977 0006d04 	sw	%r31, 7(%r30)
6978 0006d08 	lw	%r26, 0(%r27)
6979 0006d0c 	addi	%r30, %r30, 8
6980 0006d10 	jalr	%r26
6981 0006d14 	addi	%r30, %r30, -8
6982 0006d18 	lw	%r31, 7(%r30)
6983 0006d1c beq_cont.9213:
6983 0006d1c 	lw	%r1, 4(%r30)
6984 0006d20 	addi	%r4, %r1, -2
6985 0006d24 	lw	%r1, 5(%r30)
6986 0006d28 	lw	%r2, 1(%r30)
6987 0006d2c 	lw	%r3, 0(%r30)
6988 0006d30 	lw	%r27, 2(%r30)
6989 0006d34 	lw	%r26, 0(%r27)
6990 0006d38 	jr	%r26
6991 0006d3c bne_else.9211:
6991 0006d3c 	jr	%r31
6992 0006d40 trace_diffuse_rays.3006:
6992 0006d40 	lw	%r4, 1(%r27)
6993 0006d44 	sw	%r3, 0(%r30)
6994 0006d48 	sw	%r2, 1(%r30)
6995 0006d4c 	sw	%r1, 2(%r30)
6996 0006d50 	sw	%r4, 3(%r30)
6997 0006d54 	addi	%r1, %r3, 0
6998 0006d58 	sw	%r31, 4(%r30)
6999 0006d5c 	addi	%r30, %r30, 5
7000 0006d60 	jal	setup_startp.2906
7001 0006d64 	addi	%r30, %r30, -5
7002 0006d68 	lw	%r31, 4(%r30)
7003 0006d6c 	addi	%r4, %r0, 118
7004 0006d70 	lw	%r1, 2(%r30)
7005 0006d74 	lw	%r2, 1(%r30)
7006 0006d78 	lw	%r3, 0(%r30)
7007 0006d7c 	lw	%r27, 3(%r30)
7008 0006d80 	lw	%r26, 0(%r27)
7009 0006d84 	jr	%r26
7010 0006d88 trace_diffuse_ray_80percent.3010:
7010 0006d88 	lw	%r27, 1(%r27)
7011 0006d8c 	la	%r4, const_array.6390
7013 0006d94 	sw	%r3, 0(%r30)
7014 0006d98 	sw	%r2, 1(%r30)
7015 0006d9c 	sw	%r27, 2(%r30)
7016 0006da0 	sw	%r4, 3(%r30)
7017 0006da4 	sw	%r1, 4(%r30)
7018 0006da8 	addi	%r26, %r0, 0
7019 0006dac 	bne	%r1, %r26, beq_else.9215
7020 0006db0 	j	beq_cont.9216
7021 0006db4 beq_else.9215:
7021 0006db4 	addi	%r5, %r4, 0
7022 0006db8 	lw	%r5, 0(%r5)
7023 0006dbc 	addi	%r1, %r5, 0
7024 0006dc0 	sw	%r31, 5(%r30)
7025 0006dc4 	lw	%r26, 0(%r27)
7026 0006dc8 	addi	%r30, %r30, 6
7027 0006dcc 	jalr	%r26
7028 0006dd0 	addi	%r30, %r30, -6
7029 0006dd4 	lw	%r31, 5(%r30)
7030 0006dd8 beq_cont.9216:
7030 0006dd8 	lw	%r1, 4(%r30)
7031 0006ddc 	addi	%r26, %r0, 1
7032 0006de0 	bne	%r1, %r26, beq_else.9217
7033 0006de4 	j	beq_cont.9218
7034 0006de8 beq_else.9217:
7034 0006de8 	lw	%r2, 3(%r30)
7035 0006dec 	addi	%r3, %r2, 1
7036 0006df0 	lw	%r3, 0(%r3)
7037 0006df4 	lw	%r4, 1(%r30)
7038 0006df8 	lw	%r5, 0(%r30)
7039 0006dfc 	lw	%r27, 2(%r30)
7040 0006e00 	addi	%r2, %r4, 0
7041 0006e04 	addi	%r1, %r3, 0
7042 0006e08 	addi	%r3, %r5, 0
7043 0006e0c 	sw	%r31, 5(%r30)
7044 0006e10 	lw	%r26, 0(%r27)
7045 0006e14 	addi	%r30, %r30, 6
7046 0006e18 	jalr	%r26
7047 0006e1c 	addi	%r30, %r30, -6
7048 0006e20 	lw	%r31, 5(%r30)
7049 0006e24 beq_cont.9218:
7049 0006e24 	lw	%r1, 4(%r30)
7050 0006e28 	addi	%r26, %r0, 2
7051 0006e2c 	bne	%r1, %r26, beq_else.9219
7052 0006e30 	j	beq_cont.9220
7053 0006e34 beq_else.9219:
7053 0006e34 	lw	%r2, 3(%r30)
7054 0006e38 	addi	%r3, %r2, 2
7055 0006e3c 	lw	%r3, 0(%r3)
7056 0006e40 	lw	%r4, 1(%r30)
7057 0006e44 	lw	%r5, 0(%r30)
7058 0006e48 	lw	%r27, 2(%r30)
7059 0006e4c 	addi	%r2, %r4, 0
7060 0006e50 	addi	%r1, %r3, 0
7061 0006e54 	addi	%r3, %r5, 0
7062 0006e58 	sw	%r31, 5(%r30)
7063 0006e5c 	lw	%r26, 0(%r27)
7064 0006e60 	addi	%r30, %r30, 6
7065 0006e64 	jalr	%r26
7066 0006e68 	addi	%r30, %r30, -6
7067 0006e6c 	lw	%r31, 5(%r30)
7068 0006e70 beq_cont.9220:
7068 0006e70 	lw	%r1, 4(%r30)
7069 0006e74 	addi	%r26, %r0, 3
7070 0006e78 	bne	%r1, %r26, beq_else.9221
7071 0006e7c 	j	beq_cont.9222
7072 0006e80 beq_else.9221:
7072 0006e80 	lw	%r2, 3(%r30)
7073 0006e84 	addi	%r3, %r2, 3
7074 0006e88 	lw	%r3, 0(%r3)
7075 0006e8c 	lw	%r4, 1(%r30)
7076 0006e90 	lw	%r5, 0(%r30)
7077 0006e94 	lw	%r27, 2(%r30)
7078 0006e98 	addi	%r2, %r4, 0
7079 0006e9c 	addi	%r1, %r3, 0
7080 0006ea0 	addi	%r3, %r5, 0
7081 0006ea4 	sw	%r31, 5(%r30)
7082 0006ea8 	lw	%r26, 0(%r27)
7083 0006eac 	addi	%r30, %r30, 6
7084 0006eb0 	jalr	%r26
7085 0006eb4 	addi	%r30, %r30, -6
7086 0006eb8 	lw	%r31, 5(%r30)
7087 0006ebc beq_cont.9222:
7087 0006ebc 	lw	%r1, 4(%r30)
7088 0006ec0 	addi	%r26, %r0, 4
7089 0006ec4 	bne	%r1, %r26, beq_else.9223
7090 0006ec8 	jr	%r31
7091 0006ecc beq_else.9223:
7091 0006ecc 	lw	%r1, 3(%r30)
7092 0006ed0 	addi	%r1, %r1, 4
7093 0006ed4 	lw	%r1, 0(%r1)
7094 0006ed8 	lw	%r2, 1(%r30)
7095 0006edc 	lw	%r3, 0(%r30)
7096 0006ee0 	lw	%r27, 2(%r30)
7097 0006ee4 	lw	%r26, 0(%r27)
7098 0006ee8 	jr	%r26
7099 0006eec calc_diffuse_using_1point.3014:
7099 0006eec 	lw	%r3, 1(%r27)
7100 0006ef0 	sw	%r3, 0(%r30)
7101 0006ef4 	sw	%r2, 1(%r30)
7102 0006ef8 	sw	%r1, 2(%r30)
7103 0006efc 	sw	%r31, 3(%r30)
7104 0006f00 	addi	%r30, %r30, 4
7105 0006f04 	jal	p_received_ray_20percent.2763
7106 0006f08 	addi	%r30, %r30, -4
7107 0006f0c 	lw	%r31, 3(%r30)
7108 0006f10 	lw	%r2, 2(%r30)
7109 0006f14 	sw	%r1, 3(%r30)
7110 0006f18 	addi	%r1, %r2, 0
7111 0006f1c 	sw	%r31, 4(%r30)
7112 0006f20 	addi	%r30, %r30, 5
7113 0006f24 	jal	p_nvectors.2770
7114 0006f28 	addi	%r30, %r30, -5
7115 0006f2c 	lw	%r31, 4(%r30)
7116 0006f30 	lw	%r2, 2(%r30)
7117 0006f34 	sw	%r1, 4(%r30)
7118 0006f38 	addi	%r1, %r2, 0
7119 0006f3c 	sw	%r31, 5(%r30)
7120 0006f40 	addi	%r30, %r30, 6
7121 0006f44 	jal	p_intersection_points.2755
7122 0006f48 	addi	%r30, %r30, -6
7123 0006f4c 	lw	%r31, 5(%r30)
7124 0006f50 	lw	%r2, 2(%r30)
7125 0006f54 	sw	%r1, 5(%r30)
7126 0006f58 	addi	%r1, %r2, 0
7127 0006f5c 	sw	%r31, 6(%r30)
7128 0006f60 	addi	%r30, %r30, 7
7129 0006f64 	jal	p_energy.2761
7130 0006f68 	addi	%r30, %r30, -7
7131 0006f6c 	lw	%r31, 6(%r30)
7132 0006f70 	lw	%r2, 1(%r30)
7133 0006f74 	lw	%r3, 3(%r30)
7134 0006f78 	add	%r3, %r3, %r2
7135 0006f7c 	lw	%r3, 0(%r3)
7136 0006f80 	la	%r4, const_array.6375
7138 0006f88 	sw	%r4, 6(%r30)
7139 0006f8c 	sw	%r1, 7(%r30)
7140 0006f90 	addi	%r2, %r3, 0
7141 0006f94 	addi	%r1, %r4, 0
7142 0006f98 	sw	%r31, 8(%r30)
7143 0006f9c 	addi	%r30, %r30, 9
7144 0006fa0 	jal	veccpy.2675
7145 0006fa4 	addi	%r30, %r30, -9
7146 0006fa8 	lw	%r31, 8(%r30)
7147 0006fac 	lw	%r1, 2(%r30)
7148 0006fb0 	sw	%r31, 8(%r30)
7149 0006fb4 	addi	%r30, %r30, 9
7150 0006fb8 	jal	p_group_id.2765
7151 0006fbc 	addi	%r30, %r30, -9
7152 0006fc0 	lw	%r31, 8(%r30)
7153 0006fc4 	lw	%r2, 1(%r30)
7154 0006fc8 	lw	%r3, 4(%r30)
7155 0006fcc 	add	%r3, %r3, %r2
7156 0006fd0 	lw	%r3, 0(%r3)
7157 0006fd4 	lw	%r4, 5(%r30)
7158 0006fd8 	add	%r4, %r4, %r2
7159 0006fdc 	lw	%r4, 0(%r4)
7160 0006fe0 	lw	%r27, 0(%r30)
7161 0006fe4 	addi	%r2, %r3, 0
7162 0006fe8 	addi	%r3, %r4, 0
7163 0006fec 	sw	%r31, 8(%r30)
7164 0006ff0 	lw	%r26, 0(%r27)
7165 0006ff4 	addi	%r30, %r30, 9
7166 0006ff8 	jalr	%r26
7167 0006ffc 	addi	%r30, %r30, -9
7168 0007000 	lw	%r31, 8(%r30)
7169 0007004 	lw	%r1, 1(%r30)
7170 0007008 	lw	%r2, 7(%r30)
7171 000700c 	add	%r1, %r2, %r1
7172 0007010 	lw	%r2, 0(%r1)
7173 0007014 	la	%r1, const_array.6376
7175 000701c 	lw	%r3, 6(%r30)
7176 0007020 	j	vecaccumv.2707
7177 0007024 calc_diffuse_using_5points.3017:
7177 0007024 	add	%r2, %r2, %r1
7178 0007028 	lw	%r2, 0(%r2)
7179 000702c 	sw	%r5, 0(%r30)
7180 0007030 	sw	%r4, 1(%r30)
7181 0007034 	sw	%r1, 2(%r30)
7182 0007038 	sw	%r3, 3(%r30)
7183 000703c 	addi	%r1, %r2, 0
7184 0007040 	sw	%r31, 4(%r30)
7185 0007044 	addi	%r30, %r30, 5
7186 0007048 	jal	p_received_ray_20percent.2763
7187 000704c 	addi	%r30, %r30, -5
7188 0007050 	lw	%r31, 4(%r30)
7189 0007054 	lw	%r2, 2(%r30)
7190 0007058 	addi	%r3, %r2, -1
7191 000705c 	lw	%r4, 3(%r30)
7192 0007060 	add	%r3, %r4, %r3
7193 0007064 	lw	%r3, 0(%r3)
7194 0007068 	sw	%r1, 4(%r30)
7195 000706c 	addi	%r1, %r3, 0
7196 0007070 	sw	%r31, 5(%r30)
7197 0007074 	addi	%r30, %r30, 6
7198 0007078 	jal	p_received_ray_20percent.2763
7199 000707c 	addi	%r30, %r30, -6
7200 0007080 	lw	%r31, 5(%r30)
7201 0007084 	lw	%r2, 2(%r30)
7202 0007088 	lw	%r3, 3(%r30)
7203 000708c 	add	%r4, %r3, %r2
7204 0007090 	lw	%r4, 0(%r4)
7205 0007094 	sw	%r1, 5(%r30)
7206 0007098 	addi	%r1, %r4, 0
7207 000709c 	sw	%r31, 6(%r30)
7208 00070a0 	addi	%r30, %r30, 7
7209 00070a4 	jal	p_received_ray_20percent.2763
7210 00070a8 	addi	%r30, %r30, -7
7211 00070ac 	lw	%r31, 6(%r30)
7212 00070b0 	lw	%r2, 2(%r30)
7213 00070b4 	addi	%r3, %r2, 1
7214 00070b8 	lw	%r4, 3(%r30)
7215 00070bc 	add	%r3, %r4, %r3
7216 00070c0 	lw	%r3, 0(%r3)
7217 00070c4 	sw	%r1, 6(%r30)
7218 00070c8 	addi	%r1, %r3, 0
7219 00070cc 	sw	%r31, 7(%r30)
7220 00070d0 	addi	%r30, %r30, 8
7221 00070d4 	jal	p_received_ray_20percent.2763
7222 00070d8 	addi	%r30, %r30, -8
7223 00070dc 	lw	%r31, 7(%r30)
7224 00070e0 	lw	%r2, 2(%r30)
7225 00070e4 	lw	%r3, 1(%r30)
7226 00070e8 	add	%r3, %r3, %r2
7227 00070ec 	lw	%r3, 0(%r3)
7228 00070f0 	sw	%r1, 7(%r30)
7229 00070f4 	addi	%r1, %r3, 0
7230 00070f8 	sw	%r31, 8(%r30)
7231 00070fc 	addi	%r30, %r30, 9
7232 0007100 	jal	p_received_ray_20percent.2763
7233 0007104 	addi	%r30, %r30, -9
7234 0007108 	lw	%r31, 8(%r30)
7235 000710c 	lw	%r2, 0(%r30)
7236 0007110 	lw	%r3, 4(%r30)
7237 0007114 	add	%r3, %r3, %r2
7238 0007118 	lw	%r3, 0(%r3)
7239 000711c 	la	%r4, const_array.6375
7241 0007124 	sw	%r1, 8(%r30)
7242 0007128 	sw	%r4, 9(%r30)
7243 000712c 	addi	%r2, %r3, 0
7244 0007130 	addi	%r1, %r4, 0
7245 0007134 	sw	%r31, 10(%r30)
7246 0007138 	addi	%r30, %r30, 11
7247 000713c 	jal	veccpy.2675
7248 0007140 	addi	%r30, %r30, -11
7249 0007144 	lw	%r31, 10(%r30)
7250 0007148 	lw	%r1, 0(%r30)
7251 000714c 	lw	%r2, 5(%r30)
7252 0007150 	add	%r2, %r2, %r1
7253 0007154 	lw	%r2, 0(%r2)
7254 0007158 	lw	%r3, 9(%r30)
7255 000715c 	addi	%r1, %r3, 0
7256 0007160 	sw	%r31, 10(%r30)
7257 0007164 	addi	%r30, %r30, 11
7258 0007168 	jal	vecadd.2698
7259 000716c 	addi	%r30, %r30, -11
7260 0007170 	lw	%r31, 10(%r30)
7261 0007174 	lw	%r1, 0(%r30)
7262 0007178 	lw	%r2, 6(%r30)
7263 000717c 	add	%r2, %r2, %r1
7264 0007180 	lw	%r2, 0(%r2)
7265 0007184 	lw	%r3, 9(%r30)
7266 0007188 	addi	%r1, %r3, 0
7267 000718c 	sw	%r31, 10(%r30)
7268 0007190 	addi	%r30, %r30, 11
7269 0007194 	jal	vecadd.2698
7270 0007198 	addi	%r30, %r30, -11
7271 000719c 	lw	%r31, 10(%r30)
7272 00071a0 	lw	%r1, 0(%r30)
7273 00071a4 	lw	%r2, 7(%r30)
7274 00071a8 	add	%r2, %r2, %r1
7275 00071ac 	lw	%r2, 0(%r2)
7276 00071b0 	lw	%r3, 9(%r30)
7277 00071b4 	addi	%r1, %r3, 0
7278 00071b8 	sw	%r31, 10(%r30)
7279 00071bc 	addi	%r30, %r30, 11
7280 00071c0 	jal	vecadd.2698
7281 00071c4 	addi	%r30, %r30, -11
7282 00071c8 	lw	%r31, 10(%r30)
7283 00071cc 	lw	%r1, 0(%r30)
7284 00071d0 	lw	%r2, 8(%r30)
7285 00071d4 	add	%r2, %r2, %r1
7286 00071d8 	lw	%r2, 0(%r2)
7287 00071dc 	lw	%r3, 9(%r30)
7288 00071e0 	addi	%r1, %r3, 0
7289 00071e4 	sw	%r31, 10(%r30)
7290 00071e8 	addi	%r30, %r30, 11
7291 00071ec 	jal	vecadd.2698
7292 00071f0 	addi	%r30, %r30, -11
7293 00071f4 	lw	%r31, 10(%r30)
7294 00071f8 	lw	%r1, 2(%r30)
7295 00071fc 	lw	%r2, 3(%r30)
7296 0007200 	add	%r1, %r2, %r1
7297 0007204 	lw	%r1, 0(%r1)
7298 0007208 	sw	%r31, 10(%r30)
7299 000720c 	addi	%r30, %r30, 11
7300 0007210 	jal	p_energy.2761
7301 0007214 	addi	%r30, %r30, -11
7302 0007218 	lw	%r31, 10(%r30)
7303 000721c 	lw	%r2, 0(%r30)
7304 0007220 	add	%r1, %r1, %r2
7305 0007224 	lw	%r2, 0(%r1)
7306 0007228 	la	%r1, const_array.6376
7308 0007230 	lw	%r3, 9(%r30)
7309 0007234 	j	vecaccumv.2707
7310 0007238 do_without_neighbors.3023:
7310 0007238 	lw	%r3, 1(%r27)
7311 000723c 	slti	%r28, %r2, 4
7312 0007240 	beq	%r28, %r0, bne_else.9225
7313 0007244 	sw	%r27, 0(%r30)
7314 0007248 	sw	%r3, 1(%r30)
7315 000724c 	sw	%r2, 2(%r30)
7316 0007250 	sw	%r1, 3(%r30)
7317 0007254 	sw	%r31, 4(%r30)
7318 0007258 	addi	%r30, %r30, 5
7319 000725c 	jal	p_surface_ids.2757
7320 0007260 	addi	%r30, %r30, -5
7321 0007264 	lw	%r31, 4(%r30)
7322 0007268 	lw	%r2, 2(%r30)
7323 000726c 	add	%r1, %r1, %r2
7324 0007270 	lw	%r1, 0(%r1)
7325 0007274 	addi	%r26, %r0, 0
7326 0007278 	slt	%r28, %r26, %r1
7327 000727c 	beq	%r28, %r0, bne_else.9226
7328 0007280 	lw	%r1, 3(%r30)
7329 0007284 	sw	%r31, 4(%r30)
7330 0007288 	addi	%r30, %r30, 5
7331 000728c 	jal	p_calc_diffuse.2759
7332 0007290 	addi	%r30, %r30, -5
7333 0007294 	lw	%r31, 4(%r30)
7334 0007298 	lw	%r2, 2(%r30)
7335 000729c 	add	%r1, %r1, %r2
7336 00072a0 	lw	%r1, 0(%r1)
7337 00072a4 	addi	%r26, %r0, 0
7338 00072a8 	bne	%r1, %r26, beq_else.9227
7339 00072ac 	j	beq_cont.9228
7340 00072b0 beq_else.9227:
7340 00072b0 	lw	%r1, 3(%r30)
7341 00072b4 	lw	%r27, 1(%r30)
7342 00072b8 	sw	%r31, 4(%r30)
7343 00072bc 	lw	%r26, 0(%r27)
7344 00072c0 	addi	%r30, %r30, 5
7345 00072c4 	jalr	%r26
7346 00072c8 	addi	%r30, %r30, -5
7347 00072cc 	lw	%r31, 4(%r30)
7348 00072d0 beq_cont.9228:
7348 00072d0 	lw	%r1, 2(%r30)
7349 00072d4 	addi	%r2, %r1, 1
7350 00072d8 	lw	%r1, 3(%r30)
7351 00072dc 	lw	%r27, 0(%r30)
7352 00072e0 	lw	%r26, 0(%r27)
7353 00072e4 	jr	%r26
7354 00072e8 bne_else.9226:
7354 00072e8 	jr	%r31
7355 00072ec bne_else.9225:
7355 00072ec 	jr	%r31
7356 00072f0 neighbors_exist.3026:
7356 00072f0 	la	%r3, const_array.6377
7358 00072f8 	addi	%r4, %r3, 1
7359 00072fc 	lw	%r4, 0(%r4)
7360 0007300 	addi	%r5, %r2, 1
7361 0007304 	slt	%r28, %r4, %r5
7362 0007308 	beq	%r28, %r0, bne_else.9231
7363 000730c 	addi	%r1, %r0, 0
7364 0007310 	jr	%r31
7365 0007314 bne_else.9231:
7365 0007314 	slti	%r28, %r2, 0
7366 0007318 	beq	%r28, %r0, bne_else.9232
7367 000731c 	addi	%r1, %r0, 0
7368 0007320 	jr	%r31
7369 0007324 bne_else.9232:
7369 0007324 	addi	%r2, %r3, 0
7370 0007328 	lw	%r2, 0(%r2)
7371 000732c 	addi	%r3, %r1, 1
7372 0007330 	slt	%r28, %r2, %r3
7373 0007334 	beq	%r28, %r0, bne_else.9233
7374 0007338 	addi	%r1, %r0, 0
7375 000733c 	jr	%r31
7376 0007340 bne_else.9233:
7376 0007340 	slti	%r28, %r1, 0
7377 0007344 	beq	%r28, %r0, bne_else.9234
7378 0007348 	addi	%r1, %r0, 0
7379 000734c 	jr	%r31
7380 0007350 bne_else.9234:
7380 0007350 	addi	%r1, %r0, 1
7381 0007354 	jr	%r31
7382 0007358 get_surface_id.3030:
7382 0007358 	sw	%r2, 0(%r30)
7383 000735c 	sw	%r31, 1(%r30)
7384 0007360 	addi	%r30, %r30, 2
7385 0007364 	jal	p_surface_ids.2757
7386 0007368 	addi	%r30, %r30, -2
7387 000736c 	lw	%r31, 1(%r30)
7388 0007370 	lw	%r2, 0(%r30)
7389 0007374 	add	%r1, %r1, %r2
7390 0007378 	lw	%r1, 0(%r1)
7391 000737c 	jr	%r31
7392 0007380 neighbors_are_available.3033:
7392 0007380 	add	%r6, %r3, %r1
7393 0007384 	lw	%r6, 0(%r6)
7394 0007388 	sw	%r3, 0(%r30)
7395 000738c 	sw	%r1, 1(%r30)
7396 0007390 	sw	%r4, 2(%r30)
7397 0007394 	sw	%r5, 3(%r30)
7398 0007398 	sw	%r2, 4(%r30)
7399 000739c 	addi	%r2, %r5, 0
7400 00073a0 	addi	%r1, %r6, 0
7401 00073a4 	sw	%r31, 5(%r30)
7402 00073a8 	addi	%r30, %r30, 6
7403 00073ac 	jal	get_surface_id.3030
7404 00073b0 	addi	%r30, %r30, -6
7405 00073b4 	lw	%r31, 5(%r30)
7406 00073b8 	lw	%r2, 1(%r30)
7407 00073bc 	lw	%r3, 4(%r30)
7408 00073c0 	add	%r3, %r3, %r2
7409 00073c4 	lw	%r3, 0(%r3)
7410 00073c8 	lw	%r4, 3(%r30)
7411 00073cc 	sw	%r1, 5(%r30)
7412 00073d0 	addi	%r2, %r4, 0
7413 00073d4 	addi	%r1, %r3, 0
7414 00073d8 	sw	%r31, 6(%r30)
7415 00073dc 	addi	%r30, %r30, 7
7416 00073e0 	jal	get_surface_id.3030
7417 00073e4 	addi	%r30, %r30, -7
7418 00073e8 	lw	%r31, 6(%r30)
7419 00073ec 	lw	%r2, 5(%r30)
7420 00073f0 	bne	%r1, %r2, be_else.9235
7421 00073f4 	lw	%r1, 1(%r30)
7422 00073f8 	lw	%r3, 2(%r30)
7423 00073fc 	add	%r3, %r3, %r1
7424 0007400 	lw	%r3, 0(%r3)
7425 0007404 	lw	%r4, 3(%r30)
7426 0007408 	addi	%r2, %r4, 0
7427 000740c 	addi	%r1, %r3, 0
7428 0007410 	sw	%r31, 6(%r30)
7429 0007414 	addi	%r30, %r30, 7
7430 0007418 	jal	get_surface_id.3030
7431 000741c 	addi	%r30, %r30, -7
7432 0007420 	lw	%r31, 6(%r30)
7433 0007424 	lw	%r2, 5(%r30)
7434 0007428 	bne	%r1, %r2, be_else.9236
7435 000742c 	lw	%r1, 1(%r30)
7436 0007430 	addi	%r3, %r1, -1
7437 0007434 	lw	%r4, 0(%r30)
7438 0007438 	add	%r3, %r4, %r3
7439 000743c 	lw	%r3, 0(%r3)
7440 0007440 	lw	%r5, 3(%r30)
7441 0007444 	addi	%r2, %r5, 0
7442 0007448 	addi	%r1, %r3, 0
7443 000744c 	sw	%r31, 6(%r30)
7444 0007450 	addi	%r30, %r30, 7
7445 0007454 	jal	get_surface_id.3030
7446 0007458 	addi	%r30, %r30, -7
7447 000745c 	lw	%r31, 6(%r30)
7448 0007460 	lw	%r2, 5(%r30)
7449 0007464 	bne	%r1, %r2, be_else.9237
7450 0007468 	lw	%r1, 1(%r30)
7451 000746c 	addi	%r1, %r1, 1
7452 0007470 	lw	%r3, 0(%r30)
7453 0007474 	add	%r1, %r3, %r1
7454 0007478 	lw	%r1, 0(%r1)
7455 000747c 	lw	%r3, 3(%r30)
7456 0007480 	addi	%r2, %r3, 0
7457 0007484 	sw	%r31, 6(%r30)
7458 0007488 	addi	%r30, %r30, 7
7459 000748c 	jal	get_surface_id.3030
7460 0007490 	addi	%r30, %r30, -7
7461 0007494 	lw	%r31, 6(%r30)
7462 0007498 	lw	%r2, 5(%r30)
7463 000749c 	bne	%r1, %r2, be_else.9238
7464 00074a0 	addi	%r1, %r0, 1
7465 00074a4 	jr	%r31
7466 00074a8 be_else.9238:
7466 00074a8 	addi	%r1, %r0, 0
7467 00074ac 	jr	%r31
7468 00074b0 be_else.9237:
7468 00074b0 	addi	%r1, %r0, 0
7469 00074b4 	jr	%r31
7470 00074b8 be_else.9236:
7470 00074b8 	addi	%r1, %r0, 0
7471 00074bc 	jr	%r31
7472 00074c0 be_else.9235:
7472 00074c0 	addi	%r1, %r0, 0
7473 00074c4 	jr	%r31
7474 00074c8 try_exploit_neighbors.3039:
7474 00074c8 	lw	%r7, 1(%r27)
7475 00074cc 	add	%r8, %r4, %r1
7476 00074d0 	lw	%r8, 0(%r8)
7477 00074d4 	slti	%r28, %r6, 4
7478 00074d8 	beq	%r28, %r0, bne_else.9239
7479 00074dc 	sw	%r2, 0(%r30)
7480 00074e0 	sw	%r27, 1(%r30)
7481 00074e4 	sw	%r8, 2(%r30)
7482 00074e8 	sw	%r7, 3(%r30)
7483 00074ec 	sw	%r6, 4(%r30)
7484 00074f0 	sw	%r5, 5(%r30)
7485 00074f4 	sw	%r4, 6(%r30)
7486 00074f8 	sw	%r3, 7(%r30)
7487 00074fc 	sw	%r1, 8(%r30)
7488 0007500 	addi	%r2, %r6, 0
7489 0007504 	addi	%r1, %r8, 0
7490 0007508 	sw	%r31, 9(%r30)
7491 000750c 	addi	%r30, %r30, 10
7492 0007510 	jal	get_surface_id.3030
7493 0007514 	addi	%r30, %r30, -10
7494 0007518 	lw	%r31, 9(%r30)
7495 000751c 	addi	%r26, %r0, 0
7496 0007520 	slt	%r28, %r26, %r1
7497 0007524 	beq	%r28, %r0, bne_else.9240
7498 0007528 	lw	%r1, 8(%r30)
7499 000752c 	lw	%r2, 7(%r30)
7500 0007530 	lw	%r3, 6(%r30)
7501 0007534 	lw	%r4, 5(%r30)
7502 0007538 	lw	%r5, 4(%r30)
7503 000753c 	sw	%r31, 9(%r30)
7504 0007540 	addi	%r30, %r30, 10
7505 0007544 	jal	neighbors_are_available.3033
7506 0007548 	addi	%r30, %r30, -10
7507 000754c 	lw	%r31, 9(%r30)
7508 0007550 	addi	%r26, %r0, 0
7509 0007554 	bne	%r1, %r26, beq_else.9241
7510 0007558 	lw	%r1, 8(%r30)
7511 000755c 	lw	%r2, 6(%r30)
7512 0007560 	add	%r1, %r2, %r1
7513 0007564 	lw	%r1, 0(%r1)
7514 0007568 	lw	%r2, 4(%r30)
7515 000756c 	lw	%r27, 3(%r30)
7516 0007570 	lw	%r26, 0(%r27)
7517 0007574 	jr	%r26
7518 0007578 beq_else.9241:
7518 0007578 	lw	%r1, 2(%r30)
7519 000757c 	sw	%r31, 9(%r30)
7520 0007580 	addi	%r30, %r30, 10
7521 0007584 	jal	p_calc_diffuse.2759
7522 0007588 	addi	%r30, %r30, -10
7523 000758c 	lw	%r31, 9(%r30)
7524 0007590 	lw	%r5, 4(%r30)
7525 0007594 	add	%r1, %r1, %r5
7526 0007598 	lw	%r1, 0(%r1)
7527 000759c 	addi	%r26, %r0, 0
7528 00075a0 	bne	%r1, %r26, beq_else.9242
7529 00075a4 	j	beq_cont.9243
7530 00075a8 beq_else.9242:
7530 00075a8 	lw	%r1, 8(%r30)
7531 00075ac 	lw	%r2, 7(%r30)
7532 00075b0 	lw	%r3, 6(%r30)
7533 00075b4 	lw	%r4, 5(%r30)
7534 00075b8 	sw	%r31, 9(%r30)
7535 00075bc 	addi	%r30, %r30, 10
7536 00075c0 	jal	calc_diffuse_using_5points.3017
7537 00075c4 	addi	%r30, %r30, -10
7538 00075c8 	lw	%r31, 9(%r30)
7539 00075cc beq_cont.9243:
7539 00075cc 	lw	%r1, 4(%r30)
7540 00075d0 	addi	%r6, %r1, 1
7541 00075d4 	lw	%r1, 8(%r30)
7542 00075d8 	lw	%r2, 0(%r30)
7543 00075dc 	lw	%r3, 7(%r30)
7544 00075e0 	lw	%r4, 6(%r30)
7545 00075e4 	lw	%r5, 5(%r30)
7546 00075e8 	lw	%r27, 1(%r30)
7547 00075ec 	lw	%r26, 0(%r27)
7548 00075f0 	jr	%r26
7549 00075f4 bne_else.9240:
7549 00075f4 	jr	%r31
7550 00075f8 bne_else.9239:
7550 00075f8 	jr	%r31
7551 00075fc write_ppm_header.3046:
7551 00075fc 	addi	%r1, %r0, 80
7552 0007600 	sw	%r31, 0(%r30)
7553 0007604 	addi	%r30, %r30, 1
7554 0007608 	jal	min_caml_print_char
7555 000760c 	addi	%r30, %r30, -1
7556 0007610 	lw	%r31, 0(%r30)
7557 0007614 	addi	%r1, %r0, 54
7558 0007618 	sw	%r31, 0(%r30)
7559 000761c 	addi	%r30, %r30, 1
7560 0007620 	jal	min_caml_print_char
7561 0007624 	addi	%r30, %r30, -1
7562 0007628 	lw	%r31, 0(%r30)
7563 000762c 	addi	%r1, %r0, 10
7564 0007630 	sw	%r31, 0(%r30)
7565 0007634 	addi	%r30, %r30, 1
7566 0007638 	jal	min_caml_print_char
7567 000763c 	addi	%r30, %r30, -1
7568 0007640 	lw	%r31, 0(%r30)
7569 0007644 	addi	%r1, %r0, 49
7570 0007648 	sw	%r31, 0(%r30)
7571 000764c 	addi	%r30, %r30, 1
7572 0007650 	jal	min_caml_print_char
7573 0007654 	addi	%r30, %r30, -1
7574 0007658 	lw	%r31, 0(%r30)
7575 000765c 	addi	%r1, %r0, 50
7576 0007660 	sw	%r31, 0(%r30)
7577 0007664 	addi	%r30, %r30, 1
7578 0007668 	jal	min_caml_print_char
7579 000766c 	addi	%r30, %r30, -1
7580 0007670 	lw	%r31, 0(%r30)
7581 0007674 	addi	%r1, %r0, 56
7582 0007678 	sw	%r31, 0(%r30)
7583 000767c 	addi	%r30, %r30, 1
7584 0007680 	jal	min_caml_print_char
7585 0007684 	addi	%r30, %r30, -1
7586 0007688 	lw	%r31, 0(%r30)
7587 000768c 	addi	%r1, %r0, 32
7588 0007690 	sw	%r31, 0(%r30)
7589 0007694 	addi	%r30, %r30, 1
7590 0007698 	jal	min_caml_print_char
7591 000769c 	addi	%r30, %r30, -1
7592 00076a0 	lw	%r31, 0(%r30)
7593 00076a4 	addi	%r1, %r0, 49
7594 00076a8 	sw	%r31, 0(%r30)
7595 00076ac 	addi	%r30, %r30, 1
7596 00076b0 	jal	min_caml_print_char
7597 00076b4 	addi	%r30, %r30, -1
7598 00076b8 	lw	%r31, 0(%r30)
7599 00076bc 	addi	%r1, %r0, 50
7600 00076c0 	sw	%r31, 0(%r30)
7601 00076c4 	addi	%r30, %r30, 1
7602 00076c8 	jal	min_caml_print_char
7603 00076cc 	addi	%r30, %r30, -1
7604 00076d0 	lw	%r31, 0(%r30)
7605 00076d4 	addi	%r1, %r0, 56
7606 00076d8 	sw	%r31, 0(%r30)
7607 00076dc 	addi	%r30, %r30, 1
7608 00076e0 	jal	min_caml_print_char
7609 00076e4 	addi	%r30, %r30, -1
7610 00076e8 	lw	%r31, 0(%r30)
7611 00076ec 	addi	%r1, %r0, 32
7612 00076f0 	sw	%r31, 0(%r30)
7613 00076f4 	addi	%r30, %r30, 1
7614 00076f8 	jal	min_caml_print_char
7615 00076fc 	addi	%r30, %r30, -1
7616 0007700 	lw	%r31, 0(%r30)
7617 0007704 	addi	%r1, %r0, 50
7618 0007708 	sw	%r31, 0(%r30)
7619 000770c 	addi	%r30, %r30, 1
7620 0007710 	jal	min_caml_print_char
7621 0007714 	addi	%r30, %r30, -1
7622 0007718 	lw	%r31, 0(%r30)
7623 000771c 	addi	%r1, %r0, 53
7624 0007720 	sw	%r31, 0(%r30)
7625 0007724 	addi	%r30, %r30, 1
7626 0007728 	jal	min_caml_print_char
7627 000772c 	addi	%r30, %r30, -1
7628 0007730 	lw	%r31, 0(%r30)
7629 0007734 	addi	%r1, %r0, 53
7630 0007738 	sw	%r31, 0(%r30)
7631 000773c 	addi	%r30, %r30, 1
7632 0007740 	jal	min_caml_print_char
7633 0007744 	addi	%r30, %r30, -1
7634 0007748 	lw	%r31, 0(%r30)
7635 000774c 	addi	%r1, %r0, 10
7636 0007750 	j	min_caml_print_char
7637 0007754 write_rgb_element.3048:
7637 0007754 	ftoi	%r1, %f0
7638 0007758 	slti	%r28, %r1, 255
7639 000775c 	beq	%r28, %r0, bne_else.9246
7640 0007760 	addi	%r26, %r0, 0
7641 0007764 	slt	%r28, %r26, %r1
7642 0007768 	beq	%r28, %r0, bne_else.9248
7643 000776c 	add	%r1, %r0, %r1
7644 0007770 	j	bne_cont.9249
7645 0007774 bne_else.9248:
7645 0007774 	addi	%r1, %r0, 0
7646 0007778 bne_cont.9249:
7646 0007778 	j	bne_cont.9247
7647 000777c bne_else.9246:
7647 000777c 	addi	%r1, %r0, 255
7648 0007780 bne_cont.9247:
7648 0007780 	j	min_caml_print_char
7649 0007784 write_rgb.3050:
7649 0007784 	la	%r1, const_array.6376
7651 000778c 	addi	%r2, %r1, 0
7652 0007790 	lw.s	%f0, 0(%r2)
7653 0007794 	sw	%r1, 0(%r30)
7654 0007798 	sw	%r31, 1(%r30)
7655 000779c 	addi	%r30, %r30, 2
7656 00077a0 	jal	write_rgb_element.3048
7657 00077a4 	addi	%r30, %r30, -2
7658 00077a8 	lw	%r31, 1(%r30)
7659 00077ac 	lw	%r1, 0(%r30)
7660 00077b0 	addi	%r2, %r1, 1
7661 00077b4 	lw.s	%f0, 0(%r2)
7662 00077b8 	sw	%r31, 1(%r30)
7663 00077bc 	addi	%r30, %r30, 2
7664 00077c0 	jal	write_rgb_element.3048
7665 00077c4 	addi	%r30, %r30, -2
7666 00077c8 	lw	%r31, 1(%r30)
7667 00077cc 	lw	%r1, 0(%r30)
7668 00077d0 	addi	%r1, %r1, 2
7669 00077d4 	lw.s	%f0, 0(%r1)
7670 00077d8 	j	write_rgb_element.3048
7671 00077dc pretrace_diffuse_rays.3052:
7671 00077dc 	lw	%r3, 1(%r27)
7672 00077e0 	la	%r4, const_array.6390
7674 00077e8 	la	%r5, const_array.6375
7676 00077f0 	slti	%r28, %r2, 4
7677 00077f4 	beq	%r28, %r0, bne_else.9250
7678 00077f8 	sw	%r27, 0(%r30)
7679 00077fc 	sw	%r3, 1(%r30)
7680 0007800 	sw	%r4, 2(%r30)
7681 0007804 	sw	%r5, 3(%r30)
7682 0007808 	sw	%r2, 4(%r30)
7683 000780c 	sw	%r1, 5(%r30)
7684 0007810 	sw	%r31, 6(%r30)
7685 0007814 	addi	%r30, %r30, 7
7686 0007818 	jal	get_surface_id.3030
7687 000781c 	addi	%r30, %r30, -7
7688 0007820 	lw	%r31, 6(%r30)
7689 0007824 	addi	%r26, %r0, 0
7690 0007828 	slt	%r28, %r26, %r1
7691 000782c 	beq	%r28, %r0, bne_else.9251
7692 0007830 	lw	%r1, 5(%r30)
7693 0007834 	sw	%r31, 6(%r30)
7694 0007838 	addi	%r30, %r30, 7
7695 000783c 	jal	p_calc_diffuse.2759
7696 0007840 	addi	%r30, %r30, -7
7697 0007844 	lw	%r31, 6(%r30)
7698 0007848 	lw	%r2, 4(%r30)
7699 000784c 	add	%r1, %r1, %r2
7700 0007850 	lw	%r1, 0(%r1)
7701 0007854 	addi	%r26, %r0, 0
7702 0007858 	bne	%r1, %r26, beq_else.9252
7703 000785c 	j	beq_cont.9253
7704 0007860 beq_else.9252:
7704 0007860 	lw	%r1, 5(%r30)
7705 0007864 	sw	%r31, 6(%r30)
7706 0007868 	addi	%r30, %r30, 7
7707 000786c 	jal	p_group_id.2765
7708 0007870 	addi	%r30, %r30, -7
7709 0007874 	lw	%r31, 6(%r30)
7710 0007878 	lw	%r2, 3(%r30)
7711 000787c 	sw	%r1, 6(%r30)
7712 0007880 	addi	%r1, %r2, 0
7713 0007884 	sw	%r31, 7(%r30)
7714 0007888 	addi	%r30, %r30, 8
7715 000788c 	jal	vecbzero.2673
7716 0007890 	addi	%r30, %r30, -8
7717 0007894 	lw	%r31, 7(%r30)
7718 0007898 	lw	%r1, 5(%r30)
7719 000789c 	sw	%r31, 7(%r30)
7720 00078a0 	addi	%r30, %r30, 8
7721 00078a4 	jal	p_nvectors.2770
7722 00078a8 	addi	%r30, %r30, -8
7723 00078ac 	lw	%r31, 7(%r30)
7724 00078b0 	lw	%r2, 5(%r30)
7725 00078b4 	sw	%r1, 7(%r30)
7726 00078b8 	addi	%r1, %r2, 0
7727 00078bc 	sw	%r31, 8(%r30)
7728 00078c0 	addi	%r30, %r30, 9
7729 00078c4 	jal	p_intersection_points.2755
7730 00078c8 	addi	%r30, %r30, -9
7731 00078cc 	lw	%r31, 8(%r30)
7732 00078d0 	lw	%r2, 6(%r30)
7733 00078d4 	lw	%r3, 2(%r30)
7734 00078d8 	add	%r2, %r3, %r2
7735 00078dc 	lw	%r2, 0(%r2)
7736 00078e0 	lw	%r3, 4(%r30)
7737 00078e4 	lw	%r4, 7(%r30)
7738 00078e8 	add	%r4, %r4, %r3
7739 00078ec 	lw	%r4, 0(%r4)
7740 00078f0 	add	%r1, %r1, %r3
7741 00078f4 	lw	%r1, 0(%r1)
7742 00078f8 	lw	%r27, 1(%r30)
7743 00078fc 	addi	%r3, %r1, 0
7744 0007900 	addi	%r1, %r2, 0
7745 0007904 	addi	%r2, %r4, 0
7746 0007908 	sw	%r31, 8(%r30)
7747 000790c 	lw	%r26, 0(%r27)
7748 0007910 	addi	%r30, %r30, 9
7749 0007914 	jalr	%r26
7750 0007918 	addi	%r30, %r30, -9
7751 000791c 	lw	%r31, 8(%r30)
7752 0007920 	lw	%r1, 5(%r30)
7753 0007924 	sw	%r31, 8(%r30)
7754 0007928 	addi	%r30, %r30, 9
7755 000792c 	jal	p_received_ray_20percent.2763
7756 0007930 	addi	%r30, %r30, -9
7757 0007934 	lw	%r31, 8(%r30)
7758 0007938 	lw	%r2, 4(%r30)
7759 000793c 	add	%r1, %r1, %r2
7760 0007940 	lw	%r1, 0(%r1)
7761 0007944 	lw	%r3, 3(%r30)
7762 0007948 	addi	%r2, %r3, 0
7763 000794c 	sw	%r31, 8(%r30)
7764 0007950 	addi	%r30, %r30, 9
7765 0007954 	jal	veccpy.2675
7766 0007958 	addi	%r30, %r30, -9
7767 000795c 	lw	%r31, 8(%r30)
7768 0007960 beq_cont.9253:
7768 0007960 	lw	%r1, 4(%r30)
7769 0007964 	addi	%r2, %r1, 1
7770 0007968 	lw	%r1, 5(%r30)
7771 000796c 	lw	%r27, 0(%r30)
7772 0007970 	lw	%r26, 0(%r27)
7773 0007974 	jr	%r26
7774 0007978 bne_else.9251:
7774 0007978 	jr	%r31
7775 000797c bne_else.9250:
7775 000797c 	jr	%r31
7776 0007980 pretrace_pixels.3055:
7776 0007980 	lw	%r4, 2(%r27)
7777 0007984 	lw	%r5, 1(%r27)
7778 0007988 	la	%r6, const_array.6363
7780 0007990 	la	%r7, const_array.6380
7782 0007998 	la	%r8, const_array.6382
7784 00079a0 	la	%r9, const_array.6379
7786 00079a8 	la	%r10, const_array.6376
7788 00079b0 	la	%r11, const_array.6385
7790 00079b8 	la	%r12, const_array.6378
7792 00079c0 	addi	%r26, %r0, 0
7793 00079c4 	slt	%r28, %r26, %r2
7794 00079c8 	beq	%r28, %r0, bne_else.9256
7795 00079cc 	addi	%r9, %r9, 0
7796 00079d0 	lw.s	%f3, 0(%r9)
7797 00079d4 	addi	%r9, %r12, 0
7798 00079d8 	lw	%r9, 0(%r9)
7799 00079dc 	sub	%r9, %r2, %r9
7800 00079e0 	itof	%f4, %r9
7801 00079e4 	mul.s	%f3, %f3, %f4
7802 00079e8 	addi	%r9, %r8, 0
7803 00079ec 	lw.s	%f4, 0(%r9)
7804 00079f0 	mul.s	%f4, %f3, %f4
7805 00079f4 	add.s	%f4, %f4, %f0
7806 00079f8 	addi	%r9, %r11, 0
7807 00079fc 	sw.s	%f4, 0(%r9)
7808 0007a00 	addi	%r9, %r8, 1
7809 0007a04 	lw.s	%f4, 0(%r9)
7810 0007a08 	mul.s	%f4, %f3, %f4
7811 0007a0c 	add.s	%f4, %f4, %f1
7812 0007a10 	addi	%r9, %r11, 1
7813 0007a14 	sw.s	%f4, 0(%r9)
7814 0007a18 	addi	%r8, %r8, 2
7815 0007a1c 	lw.s	%f4, 0(%r8)
7816 0007a20 	mul.s	%f3, %f3, %f4
7817 0007a24 	add.s	%f3, %f3, %f2
7818 0007a28 	addi	%r8, %r11, 2
7819 0007a2c 	sw.s	%f3, 0(%r8)
7820 0007a30 	addi	%r8, %r0, 0
7821 0007a34 	sw.s	%f2, 0(%r30)
7822 0007a38 	sw.s	%f1, 1(%r30)
7823 0007a3c 	sw.s	%f0, 2(%r30)
7824 0007a40 	sw	%r27, 3(%r30)
7825 0007a44 	sw	%r5, 4(%r30)
7826 0007a48 	sw	%r3, 5(%r30)
7827 0007a4c 	sw	%r10, 6(%r30)
7828 0007a50 	sw	%r11, 7(%r30)
7829 0007a54 	sw	%r4, 8(%r30)
7830 0007a58 	sw	%r2, 9(%r30)
7831 0007a5c 	sw	%r1, 10(%r30)
7832 0007a60 	sw	%r6, 11(%r30)
7833 0007a64 	sw	%r7, 12(%r30)
7834 0007a68 	addi	%r2, %r8, 0
7835 0007a6c 	addi	%r1, %r11, 0
7836 0007a70 	sw	%r31, 13(%r30)
7837 0007a74 	addi	%r30, %r30, 14
7838 0007a78 	jal	vecunit_sgn.2683
7839 0007a7c 	addi	%r30, %r30, -14
7840 0007a80 	lw	%r31, 13(%r30)
7841 0007a84 	lw	%r1, 6(%r30)
7842 0007a88 	sw	%r31, 13(%r30)
7843 0007a8c 	addi	%r30, %r30, 14
7844 0007a90 	jal	vecbzero.2673
7845 0007a94 	addi	%r30, %r30, -14
7846 0007a98 	lw	%r31, 13(%r30)
7847 0007a9c 	lw	%r1, 12(%r30)
7848 0007aa0 	lw	%r2, 11(%r30)
7849 0007aa4 	sw	%r31, 13(%r30)
7850 0007aa8 	addi	%r30, %r30, 14
7851 0007aac 	jal	veccpy.2675
7852 0007ab0 	addi	%r30, %r30, -14
7853 0007ab4 	lw	%r31, 13(%r30)
7854 0007ab8 	addi	%r1, %r0, 0
7855 0007abc 	la	%r2, l.6407
7857 0007ac4 	lw.s	%f0, 0(%r2)
7858 0007ac8 	lw	%r2, 9(%r30)
7859 0007acc 	lw	%r3, 10(%r30)
7860 0007ad0 	add	%r4, %r3, %r2
7861 0007ad4 	lw	%r4, 0(%r4)
7862 0007ad8 	la	%r5, l.6401
7864 0007ae0 	lw.s	%f1, 0(%r5)
7865 0007ae4 	lw	%r5, 7(%r30)
7866 0007ae8 	lw	%r27, 8(%r30)
7867 0007aec 	addi	%r3, %r4, 0
7868 0007af0 	addi	%r2, %r5, 0
7869 0007af4 	sw	%r31, 13(%r30)
7870 0007af8 	lw	%r26, 0(%r27)
7871 0007afc 	addi	%r30, %r30, 14
7872 0007b00 	jalr	%r26
7873 0007b04 	addi	%r30, %r30, -14
7874 0007b08 	lw	%r31, 13(%r30)
7875 0007b0c 	lw	%r1, 9(%r30)
7876 0007b10 	lw	%r2, 10(%r30)
7877 0007b14 	add	%r3, %r2, %r1
7878 0007b18 	lw	%r3, 0(%r3)
7879 0007b1c 	addi	%r1, %r3, 0
7880 0007b20 	sw	%r31, 13(%r30)
7881 0007b24 	addi	%r30, %r30, 14
7882 0007b28 	jal	p_rgb.2753
7883 0007b2c 	addi	%r30, %r30, -14
7884 0007b30 	lw	%r31, 13(%r30)
7885 0007b34 	lw	%r2, 6(%r30)
7886 0007b38 	sw	%r31, 13(%r30)
7887 0007b3c 	addi	%r30, %r30, 14
7888 0007b40 	jal	veccpy.2675
7889 0007b44 	addi	%r30, %r30, -14
7890 0007b48 	lw	%r31, 13(%r30)
7891 0007b4c 	lw	%r1, 9(%r30)
7892 0007b50 	lw	%r2, 10(%r30)
7893 0007b54 	add	%r3, %r2, %r1
7894 0007b58 	lw	%r3, 0(%r3)
7895 0007b5c 	lw	%r4, 5(%r30)
7896 0007b60 	addi	%r2, %r4, 0
7897 0007b64 	addi	%r1, %r3, 0
7898 0007b68 	sw	%r31, 13(%r30)
7899 0007b6c 	addi	%r30, %r30, 14
7900 0007b70 	jal	p_set_group_id.2767
7901 0007b74 	addi	%r30, %r30, -14
7902 0007b78 	lw	%r31, 13(%r30)
7903 0007b7c 	lw	%r1, 9(%r30)
7904 0007b80 	lw	%r2, 10(%r30)
7905 0007b84 	add	%r3, %r2, %r1
7906 0007b88 	lw	%r3, 0(%r3)
7907 0007b8c 	addi	%r4, %r0, 0
7908 0007b90 	lw	%r27, 4(%r30)
7909 0007b94 	addi	%r2, %r4, 0
7910 0007b98 	addi	%r1, %r3, 0
7911 0007b9c 	sw	%r31, 13(%r30)
7912 0007ba0 	lw	%r26, 0(%r27)
7913 0007ba4 	addi	%r30, %r30, 14
7914 0007ba8 	jalr	%r26
7915 0007bac 	addi	%r30, %r30, -14
7916 0007bb0 	lw	%r31, 13(%r30)
7917 0007bb4 	lw	%r1, 9(%r30)
7918 0007bb8 	addi	%r1, %r1, -1
7919 0007bbc 	addi	%r2, %r0, 1
7920 0007bc0 	lw	%r3, 5(%r30)
7921 0007bc4 	sw	%r1, 13(%r30)
7922 0007bc8 	addi	%r1, %r3, 0
7923 0007bcc 	sw	%r31, 14(%r30)
7924 0007bd0 	addi	%r30, %r30, 15
7925 0007bd4 	jal	add_mod5.2662
7926 0007bd8 	addi	%r30, %r30, -15
7927 0007bdc 	lw	%r31, 14(%r30)
7928 0007be0 	addi	%r3, %r1, 0
7929 0007be4 	lw.s	%f0, 2(%r30)
7930 0007be8 	lw.s	%f1, 1(%r30)
7931 0007bec 	lw.s	%f2, 0(%r30)
7932 0007bf0 	lw	%r1, 10(%r30)
7933 0007bf4 	lw	%r2, 13(%r30)
7934 0007bf8 	lw	%r27, 3(%r30)
7935 0007bfc 	lw	%r26, 0(%r27)
7936 0007c00 	jr	%r26
7937 0007c04 bne_else.9256:
7937 0007c04 	jr	%r31
7938 0007c08 pretrace_line.3062:
7938 0007c08 	lw	%r27, 1(%r27)
7939 0007c0c 	la	%r4, const_array.6379
7941 0007c14 	addi	%r4, %r4, 0
7942 0007c18 	lw.s	%f0, 0(%r4)
7943 0007c1c 	la	%r4, const_array.6378
7945 0007c24 	addi	%r4, %r4, 1
7946 0007c28 	lw	%r4, 0(%r4)
7947 0007c2c 	sub	%r2, %r2, %r4
7948 0007c30 	itof	%f1, %r2
7949 0007c34 	mul.s	%f0, %f0, %f1
7950 0007c38 	la	%r2, const_array.6383
7952 0007c40 	addi	%r4, %r2, 0
7953 0007c44 	lw.s	%f1, 0(%r4)
7954 0007c48 	mul.s	%f1, %f0, %f1
7955 0007c4c 	la	%r4, const_array.6384
7957 0007c54 	addi	%r5, %r4, 0
7958 0007c58 	lw.s	%f2, 0(%r5)
7959 0007c5c 	add.s	%f1, %f1, %f2
7960 0007c60 	addi	%r5, %r2, 1
7961 0007c64 	lw.s	%f2, 0(%r5)
7962 0007c68 	mul.s	%f2, %f0, %f2
7963 0007c6c 	addi	%r5, %r4, 1
7964 0007c70 	lw.s	%f3, 0(%r5)
7965 0007c74 	add.s	%f2, %f2, %f3
7966 0007c78 	addi	%r2, %r2, 2
7967 0007c7c 	lw.s	%f3, 0(%r2)
7968 0007c80 	mul.s	%f0, %f0, %f3
7969 0007c84 	addi	%r2, %r4, 2
7970 0007c88 	lw.s	%f3, 0(%r2)
7971 0007c8c 	add.s	%f0, %f0, %f3
7972 0007c90 	la	%r2, const_array.6377
7974 0007c98 	addi	%r2, %r2, 0
7975 0007c9c 	lw	%r2, 0(%r2)
7976 0007ca0 	addi	%r2, %r2, -1
7977 0007ca4 	mov.s	%f31, %f2
7978 0007ca8 	mov.s	%f2, %f0
7979 0007cac 	mov.s	%f0, %f1
7980 0007cb0 	mov.s	%f1, %f31
7981 0007cb4 	lw	%r26, 0(%r27)
7982 0007cb8 	jr	%r26
7983 0007cbc scan_pixel.3066:
7983 0007cbc 	lw	%r6, 2(%r27)
7984 0007cc0 	lw	%r7, 1(%r27)
7985 0007cc4 	la	%r8, const_array.6377
7987 0007ccc 	addi	%r8, %r8, 0
7988 0007cd0 	lw	%r8, 0(%r8)
7989 0007cd4 	la	%r9, const_array.6376
7991 0007cdc 	slt	%r28, %r8, %r1
7992 0007ce0 	beq	%r28, %r0, bne_else.9258
7993 0007ce4 	jr	%r31
7994 0007ce8 bne_else.9258:
7994 0007ce8 	add	%r8, %r4, %r1
7995 0007cec 	lw	%r8, 0(%r8)
7996 0007cf0 	sw	%r27, 0(%r30)
7997 0007cf4 	sw	%r3, 1(%r30)
7998 0007cf8 	sw	%r6, 2(%r30)
7999 0007cfc 	sw	%r7, 3(%r30)
8000 0007d00 	sw	%r4, 4(%r30)
8001 0007d04 	sw	%r5, 5(%r30)
8002 0007d08 	sw	%r2, 6(%r30)
8003 0007d0c 	sw	%r1, 7(%r30)
8004 0007d10 	sw	%r9, 8(%r30)
8005 0007d14 	addi	%r1, %r8, 0
8006 0007d18 	sw	%r31, 9(%r30)
8007 0007d1c 	addi	%r30, %r30, 10
8008 0007d20 	jal	p_rgb.2753
8009 0007d24 	addi	%r30, %r30, -10
8010 0007d28 	lw	%r31, 9(%r30)
8011 0007d2c 	addi	%r2, %r1, 0
8012 0007d30 	lw	%r1, 8(%r30)
8013 0007d34 	sw	%r31, 9(%r30)
8014 0007d38 	addi	%r30, %r30, 10
8015 0007d3c 	jal	veccpy.2675
8016 0007d40 	addi	%r30, %r30, -10
8017 0007d44 	lw	%r31, 9(%r30)
8018 0007d48 	lw	%r1, 7(%r30)
8019 0007d4c 	lw	%r2, 6(%r30)
8020 0007d50 	lw	%r3, 5(%r30)
8021 0007d54 	sw	%r31, 9(%r30)
8022 0007d58 	addi	%r30, %r30, 10
8023 0007d5c 	jal	neighbors_exist.3026
8024 0007d60 	addi	%r30, %r30, -10
8025 0007d64 	lw	%r31, 9(%r30)
8026 0007d68 	addi	%r26, %r0, 0
8027 0007d6c 	bne	%r1, %r26, beq_else.9260
8028 0007d70 	lw	%r1, 7(%r30)
8029 0007d74 	lw	%r2, 4(%r30)
8030 0007d78 	add	%r3, %r2, %r1
8031 0007d7c 	lw	%r3, 0(%r3)
8032 0007d80 	addi	%r4, %r0, 0
8033 0007d84 	lw	%r27, 3(%r30)
8034 0007d88 	addi	%r2, %r4, 0
8035 0007d8c 	addi	%r1, %r3, 0
8036 0007d90 	sw	%r31, 9(%r30)
8037 0007d94 	lw	%r26, 0(%r27)
8038 0007d98 	addi	%r30, %r30, 10
8039 0007d9c 	jalr	%r26
8040 0007da0 	addi	%r30, %r30, -10
8041 0007da4 	lw	%r31, 9(%r30)
8042 0007da8 	j	beq_cont.9261
8043 0007dac beq_else.9260:
8043 0007dac 	addi	%r6, %r0, 0
8044 0007db0 	lw	%r1, 7(%r30)
8045 0007db4 	lw	%r2, 6(%r30)
8046 0007db8 	lw	%r3, 1(%r30)
8047 0007dbc 	lw	%r4, 4(%r30)
8048 0007dc0 	lw	%r5, 5(%r30)
8049 0007dc4 	lw	%r27, 2(%r30)
8050 0007dc8 	sw	%r31, 9(%r30)
8051 0007dcc 	lw	%r26, 0(%r27)
8052 0007dd0 	addi	%r30, %r30, 10
8053 0007dd4 	jalr	%r26
8054 0007dd8 	addi	%r30, %r30, -10
8055 0007ddc 	lw	%r31, 9(%r30)
8056 0007de0 beq_cont.9261:
8056 0007de0 	sw	%r31, 9(%r30)
8057 0007de4 	addi	%r30, %r30, 10
8058 0007de8 	jal	write_rgb.3050
8059 0007dec 	addi	%r30, %r30, -10
8060 0007df0 	lw	%r31, 9(%r30)
8061 0007df4 	lw	%r1, 7(%r30)
8062 0007df8 	addi	%r1, %r1, 1
8063 0007dfc 	lw	%r2, 6(%r30)
8064 0007e00 	lw	%r3, 1(%r30)
8065 0007e04 	lw	%r4, 4(%r30)
8066 0007e08 	lw	%r5, 5(%r30)
8067 0007e0c 	lw	%r27, 0(%r30)
8068 0007e10 	lw	%r26, 0(%r27)
8069 0007e14 	jr	%r26
8070 0007e18 scan_line.3072:
8070 0007e18 	lw	%r6, 2(%r27)
8071 0007e1c 	lw	%r7, 1(%r27)
8072 0007e20 	la	%r8, const_array.6377
8074 0007e28 	addi	%r9, %r8, 1
8075 0007e2c 	lw	%r9, 0(%r9)
8076 0007e30 	slt	%r28, %r9, %r1
8077 0007e34 	beq	%r28, %r0, bne_else.9262
8078 0007e38 	jr	%r31
8079 0007e3c bne_else.9262:
8079 0007e3c 	addi	%r8, %r8, 1
8080 0007e40 	lw	%r8, 0(%r8)
8081 0007e44 	addi	%r8, %r8, -1
8082 0007e48 	sw	%r27, 0(%r30)
8083 0007e4c 	sw	%r5, 1(%r30)
8084 0007e50 	sw	%r4, 2(%r30)
8085 0007e54 	sw	%r3, 3(%r30)
8086 0007e58 	sw	%r2, 4(%r30)
8087 0007e5c 	sw	%r1, 5(%r30)
8088 0007e60 	sw	%r6, 6(%r30)
8089 0007e64 	slt	%r28, %r8, %r1
8090 0007e68 	beq	%r28, %r0, bne_else.9264
8091 0007e6c 	j	bne_cont.9265
8092 0007e70 bne_else.9264:
8092 0007e70 	addi	%r8, %r1, 1
8093 0007e74 	addi	%r3, %r5, 0
8094 0007e78 	addi	%r2, %r8, 0
8095 0007e7c 	addi	%r1, %r4, 0
8096 0007e80 	addi	%r27, %r7, 0
8097 0007e84 	sw	%r31, 7(%r30)
8098 0007e88 	lw	%r26, 0(%r27)
8099 0007e8c 	addi	%r30, %r30, 8
8100 0007e90 	jalr	%r26
8101 0007e94 	addi	%r30, %r30, -8
8102 0007e98 	lw	%r31, 7(%r30)
8103 0007e9c bne_cont.9265:
8103 0007e9c 	addi	%r1, %r0, 0
8104 0007ea0 	lw	%r2, 5(%r30)
8105 0007ea4 	lw	%r3, 4(%r30)
8106 0007ea8 	lw	%r4, 3(%r30)
8107 0007eac 	lw	%r5, 2(%r30)
8108 0007eb0 	lw	%r27, 6(%r30)
8109 0007eb4 	sw	%r31, 7(%r30)
8110 0007eb8 	lw	%r26, 0(%r27)
8111 0007ebc 	addi	%r30, %r30, 8
8112 0007ec0 	jalr	%r26
8113 0007ec4 	addi	%r30, %r30, -8
8114 0007ec8 	lw	%r31, 7(%r30)
8115 0007ecc 	lw	%r1, 5(%r30)
8116 0007ed0 	addi	%r1, %r1, 1
8117 0007ed4 	addi	%r2, %r0, 2
8118 0007ed8 	lw	%r3, 1(%r30)
8119 0007edc 	sw	%r1, 7(%r30)
8120 0007ee0 	addi	%r1, %r3, 0
8121 0007ee4 	sw	%r31, 8(%r30)
8122 0007ee8 	addi	%r30, %r30, 9
8123 0007eec 	jal	add_mod5.2662
8124 0007ef0 	addi	%r30, %r30, -9
8125 0007ef4 	lw	%r31, 8(%r30)
8126 0007ef8 	addi	%r5, %r1, 0
8127 0007efc 	lw	%r1, 7(%r30)
8128 0007f00 	lw	%r2, 3(%r30)
8129 0007f04 	lw	%r3, 2(%r30)
8130 0007f08 	lw	%r4, 4(%r30)
8131 0007f0c 	lw	%r27, 0(%r30)
8132 0007f10 	lw	%r26, 0(%r27)
8133 0007f14 	jr	%r26
8134 0007f18 create_float5x3array.3078:
8134 0007f18 	addi	%r1, %r0, 3
8135 0007f1c 	la	%r2, l.6401
8137 0007f24 	lw.s	%f0, 0(%r2)
8138 0007f28 	sw	%r31, 0(%r30)
8139 0007f2c 	addi	%r30, %r30, 1
8140 0007f30 	jal	min_caml_create_float_array
8141 0007f34 	addi	%r30, %r30, -1
8142 0007f38 	lw	%r31, 0(%r30)
8143 0007f3c 	addi	%r2, %r1, 0
8144 0007f40 	addi	%r1, %r0, 5
8145 0007f44 	sw	%r31, 0(%r30)
8146 0007f48 	addi	%r30, %r30, 1
8147 0007f4c 	jal	min_caml_create_array
8148 0007f50 	addi	%r30, %r30, -1
8149 0007f54 	lw	%r31, 0(%r30)
8150 0007f58 	addi	%r2, %r0, 3
8151 0007f5c 	la	%r3, l.6401
8153 0007f64 	lw.s	%f0, 0(%r3)
8154 0007f68 	sw	%r1, 0(%r30)
8155 0007f6c 	addi	%r1, %r2, 0
8156 0007f70 	sw	%r31, 1(%r30)
8157 0007f74 	addi	%r30, %r30, 2
8158 0007f78 	jal	min_caml_create_float_array
8159 0007f7c 	addi	%r30, %r30, -2
8160 0007f80 	lw	%r31, 1(%r30)
8161 0007f84 	lw	%r2, 0(%r30)
8162 0007f88 	addi	%r3, %r2, 1
8163 0007f8c 	sw	%r1, 0(%r3)
8164 0007f90 	addi	%r1, %r0, 3
8165 0007f94 	la	%r3, l.6401
8167 0007f9c 	lw.s	%f0, 0(%r3)
8168 0007fa0 	sw	%r31, 1(%r30)
8169 0007fa4 	addi	%r30, %r30, 2
8170 0007fa8 	jal	min_caml_create_float_array
8171 0007fac 	addi	%r30, %r30, -2
8172 0007fb0 	lw	%r31, 1(%r30)
8173 0007fb4 	lw	%r2, 0(%r30)
8174 0007fb8 	addi	%r3, %r2, 2
8175 0007fbc 	sw	%r1, 0(%r3)
8176 0007fc0 	addi	%r1, %r0, 3
8177 0007fc4 	la	%r3, l.6401
8179 0007fcc 	lw.s	%f0, 0(%r3)
8180 0007fd0 	sw	%r31, 1(%r30)
8181 0007fd4 	addi	%r30, %r30, 2
8182 0007fd8 	jal	min_caml_create_float_array
8183 0007fdc 	addi	%r30, %r30, -2
8184 0007fe0 	lw	%r31, 1(%r30)
8185 0007fe4 	lw	%r2, 0(%r30)
8186 0007fe8 	addi	%r3, %r2, 3
8187 0007fec 	sw	%r1, 0(%r3)
8188 0007ff0 	addi	%r1, %r0, 3
8189 0007ff4 	la	%r3, l.6401
8191 0007ffc 	lw.s	%f0, 0(%r3)
8192 0008000 	sw	%r31, 1(%r30)
8193 0008004 	addi	%r30, %r30, 2
8194 0008008 	jal	min_caml_create_float_array
8195 000800c 	addi	%r30, %r30, -2
8196 0008010 	lw	%r31, 1(%r30)
8197 0008014 	lw	%r2, 0(%r30)
8198 0008018 	addi	%r3, %r2, 4
8199 000801c 	sw	%r1, 0(%r3)
8200 0008020 	add	%r1, %r0, %r2
8201 0008024 	jr	%r31
8202 0008028 create_pixel.3080:
8202 0008028 	addi	%r1, %r0, 3
8203 000802c 	la	%r2, l.6401
8205 0008034 	lw.s	%f0, 0(%r2)
8206 0008038 	sw	%r31, 0(%r30)
8207 000803c 	addi	%r30, %r30, 1
8208 0008040 	jal	min_caml_create_float_array
8209 0008044 	addi	%r30, %r30, -1
8210 0008048 	lw	%r31, 0(%r30)
8211 000804c 	sw	%r1, 0(%r30)
8212 0008050 	sw	%r31, 1(%r30)
8213 0008054 	addi	%r30, %r30, 2
8214 0008058 	jal	create_float5x3array.3078
8215 000805c 	addi	%r30, %r30, -2
8216 0008060 	lw	%r31, 1(%r30)
8217 0008064 	addi	%r2, %r0, 5
8218 0008068 	addi	%r3, %r0, 0
8219 000806c 	sw	%r1, 1(%r30)
8220 0008070 	addi	%r1, %r2, 0
8221 0008074 	addi	%r2, %r3, 0
8222 0008078 	sw	%r31, 2(%r30)
8223 000807c 	addi	%r30, %r30, 3
8224 0008080 	jal	min_caml_create_array
8225 0008084 	addi	%r30, %r30, -3
8226 0008088 	lw	%r31, 2(%r30)
8227 000808c 	addi	%r2, %r0, 5
8228 0008090 	addi	%r3, %r0, 0
8229 0008094 	sw	%r1, 2(%r30)
8230 0008098 	addi	%r1, %r2, 0
8231 000809c 	addi	%r2, %r3, 0
8232 00080a0 	sw	%r31, 3(%r30)
8233 00080a4 	addi	%r30, %r30, 4
8234 00080a8 	jal	min_caml_create_array
8235 00080ac 	addi	%r30, %r30, -4
8236 00080b0 	lw	%r31, 3(%r30)
8237 00080b4 	sw	%r1, 3(%r30)
8238 00080b8 	sw	%r31, 4(%r30)
8239 00080bc 	addi	%r30, %r30, 5
8240 00080c0 	jal	create_float5x3array.3078
8241 00080c4 	addi	%r30, %r30, -5
8242 00080c8 	lw	%r31, 4(%r30)
8243 00080cc 	sw	%r1, 4(%r30)
8244 00080d0 	sw	%r31, 5(%r30)
8245 00080d4 	addi	%r30, %r30, 6
8246 00080d8 	jal	create_float5x3array.3078
8247 00080dc 	addi	%r30, %r30, -6
8248 00080e0 	lw	%r31, 5(%r30)
8249 00080e4 	addi	%r2, %r0, 1
8250 00080e8 	addi	%r3, %r0, 0
8251 00080ec 	sw	%r1, 5(%r30)
8252 00080f0 	addi	%r1, %r2, 0
8253 00080f4 	addi	%r2, %r3, 0
8254 00080f8 	sw	%r31, 6(%r30)
8255 00080fc 	addi	%r30, %r30, 7
8256 0008100 	jal	min_caml_create_array
8257 0008104 	addi	%r30, %r30, -7
8258 0008108 	lw	%r31, 6(%r30)
8259 000810c 	sw	%r1, 6(%r30)
8260 0008110 	sw	%r31, 7(%r30)
8261 0008114 	addi	%r30, %r30, 8
8262 0008118 	jal	create_float5x3array.3078
8263 000811c 	addi	%r30, %r30, -8
8264 0008120 	lw	%r31, 7(%r30)
8265 0008124 	addi	%r2, %r29, 0
8266 0008128 	addi	%r29, %r29, 8
8267 000812c 	sw	%r1, 7(%r2)
8268 0008130 	lw	%r1, 6(%r30)
8269 0008134 	sw	%r1, 6(%r2)
8270 0008138 	lw	%r1, 5(%r30)
8271 000813c 	sw	%r1, 5(%r2)
8272 0008140 	lw	%r1, 4(%r30)
8273 0008144 	sw	%r1, 4(%r2)
8274 0008148 	lw	%r1, 3(%r30)
8275 000814c 	sw	%r1, 3(%r2)
8276 0008150 	lw	%r1, 2(%r30)
8277 0008154 	sw	%r1, 2(%r2)
8278 0008158 	lw	%r1, 1(%r30)
8279 000815c 	sw	%r1, 1(%r2)
8280 0008160 	lw	%r1, 0(%r30)
8281 0008164 	sw	%r1, 0(%r2)
8282 0008168 	addi	%r1, %r2, 0
8283 000816c 	jr	%r31
8284 0008170 init_line_elements.3082:
8284 0008170 	addi	%r26, %r0, 0
8285 0008174 	slt	%r28, %r26, %r2
8286 0008178 	beq	%r28, %r0, bne_else.9266
8287 000817c 	sw	%r1, 0(%r30)
8288 0008180 	sw	%r2, 1(%r30)
8289 0008184 	sw	%r31, 2(%r30)
8290 0008188 	addi	%r30, %r30, 3
8291 000818c 	jal	create_pixel.3080
8292 0008190 	addi	%r30, %r30, -3
8293 0008194 	lw	%r31, 2(%r30)
8294 0008198 	lw	%r2, 1(%r30)
8295 000819c 	lw	%r3, 0(%r30)
8296 00081a0 	add	%r4, %r3, %r2
8297 00081a4 	sw	%r1, 0(%r4)
8298 00081a8 	addi	%r2, %r2, -1
8299 00081ac 	addi	%r1, %r3, 0
8300 00081b0 	j	init_line_elements.3082
8301 00081b4 bne_else.9266:
8301 00081b4 	add	%r1, %r0, %r1
8302 00081b8 	jr	%r31
8303 00081bc create_pixelline.3085:
8303 00081bc 	la	%r1, const_array.6377
8305 00081c4 	addi	%r2, %r1, 0
8306 00081c8 	lw	%r2, 0(%r2)
8307 00081cc 	sw	%r1, 0(%r30)
8308 00081d0 	sw	%r2, 1(%r30)
8309 00081d4 	sw	%r31, 2(%r30)
8310 00081d8 	addi	%r30, %r30, 3
8311 00081dc 	jal	create_pixel.3080
8312 00081e0 	addi	%r30, %r30, -3
8313 00081e4 	lw	%r31, 2(%r30)
8314 00081e8 	addi	%r2, %r1, 0
8315 00081ec 	lw	%r1, 1(%r30)
8316 00081f0 	sw	%r31, 2(%r30)
8317 00081f4 	addi	%r30, %r30, 3
8318 00081f8 	jal	min_caml_create_array
8319 00081fc 	addi	%r30, %r30, -3
8320 0008200 	lw	%r31, 2(%r30)
8321 0008204 	lw	%r2, 0(%r30)
8322 0008208 	addi	%r2, %r2, 0
8323 000820c 	lw	%r2, 0(%r2)
8324 0008210 	addi	%r2, %r2, -2
8325 0008214 	j	init_line_elements.3082
8326 0008218 tan.3087:
8326 0008218 	sw.s	%f0, 0(%r30)
8327 000821c 	sw	%r31, 1(%r30)
8328 0008220 	addi	%r30, %r30, 2
8329 0008224 	jal	sin.2646
8330 0008228 	addi	%r30, %r30, -2
8331 000822c 	lw	%r31, 1(%r30)
8332 0008230 	lw.s	%f1, 0(%r30)
8333 0008234 	sw.s	%f0, 1(%r30)
8334 0008238 	mov.s	%f0, %f1
8335 000823c 	sw	%r31, 2(%r30)
8336 0008240 	addi	%r30, %r30, 3
8337 0008244 	jal	cos.2644
8338 0008248 	addi	%r30, %r30, -3
8339 000824c 	lw	%r31, 2(%r30)
8340 0008250 	lw.s	%f1, 1(%r30)
8341 0008254 	div.s	%f0, %f1, %f0
8342 0008258 	jr	%r31
8343 000825c adjust_position.3089:
8343 000825c 	mul.s	%f0, %f0, %f0
8344 0008260 	la	%r1, l.7037
8346 0008268 	lw.s	%f2, 0(%r1)
8347 000826c 	add.s	%f0, %f0, %f2
8348 0008270 	sqrt.s	%f0, %f0
8349 0008274 	la	%r1, l.6407
8351 000827c 	lw.s	%f2, 0(%r1)
8352 0008280 	div.s	%f2, %f2, %f0
8353 0008284 	sw.s	%f0, 0(%r30)
8354 0008288 	sw.s	%f1, 1(%r30)
8355 000828c 	mov.s	%f0, %f2
8356 0008290 	sw	%r31, 2(%r30)
8357 0008294 	addi	%r30, %r30, 3
8358 0008298 	jal	atan.2650
8359 000829c 	addi	%r30, %r30, -3
8360 00082a0 	lw	%r31, 2(%r30)
8361 00082a4 	lw.s	%f1, 1(%r30)
8362 00082a8 	mul.s	%f0, %f0, %f1
8363 00082ac 	sw	%r31, 2(%r30)
8364 00082b0 	addi	%r30, %r30, 3
8365 00082b4 	jal	tan.3087
8366 00082b8 	addi	%r30, %r30, -3
8367 00082bc 	lw	%r31, 2(%r30)
8368 00082c0 	lw.s	%f1, 0(%r30)
8369 00082c4 	mul.s	%f0, %f0, %f1
8370 00082c8 	jr	%r31
8371 00082cc calc_dirvec.3092:
8371 00082cc 	la	%r4, const_array.6390
8373 00082d4 	addi	%r26, %r0, 5
8374 00082d8 	slt	%r28, %r26, %r1
8375 00082dc 	beq	%r28, %r0, bne_else.9267
8376 00082e0 	sw	%r3, 0(%r30)
8377 00082e4 	sw	%r2, 1(%r30)
8378 00082e8 	sw	%r4, 2(%r30)
8379 00082ec 	sw.s	%f1, 3(%r30)
8380 00082f0 	sw.s	%f0, 4(%r30)
8381 00082f4 	sw	%r31, 5(%r30)
8382 00082f8 	addi	%r30, %r30, 6
8383 00082fc 	jal	fsqr.2638
8384 0008300 	addi	%r30, %r30, -6
8385 0008304 	lw	%r31, 5(%r30)
8386 0008308 	lw.s	%f1, 3(%r30)
8387 000830c 	sw.s	%f0, 5(%r30)
8388 0008310 	mov.s	%f0, %f1
8389 0008314 	sw	%r31, 6(%r30)
8390 0008318 	addi	%r30, %r30, 7
8391 000831c 	jal	fsqr.2638
8392 0008320 	addi	%r30, %r30, -7
8393 0008324 	lw	%r31, 6(%r30)
8394 0008328 	lw.s	%f1, 5(%r30)
8395 000832c 	add.s	%f0, %f1, %f0
8396 0008330 	la	%r1, l.6407
8398 0008338 	lw.s	%f1, 0(%r1)
8399 000833c 	add.s	%f0, %f0, %f1
8400 0008340 	sqrt.s	%f0, %f0
8401 0008344 	lw.s	%f1, 4(%r30)
8402 0008348 	div.s	%f1, %f1, %f0
8403 000834c 	lw.s	%f2, 3(%r30)
8404 0008350 	div.s	%f2, %f2, %f0
8405 0008354 	la	%r1, l.6407
8407 000835c 	lw.s	%f3, 0(%r1)
8408 0008360 	div.s	%f0, %f3, %f0
8409 0008364 	lw	%r1, 1(%r30)
8410 0008368 	lw	%r2, 2(%r30)
8411 000836c 	add	%r1, %r2, %r1
8412 0008370 	lw	%r1, 0(%r1)
8413 0008374 	lw	%r2, 0(%r30)
8414 0008378 	add	%r3, %r1, %r2
8415 000837c 	lw	%r3, 0(%r3)
8416 0008380 	sw.s	%f0, 6(%r30)
8417 0008384 	sw.s	%f1, 7(%r30)
8418 0008388 	sw.s	%f2, 8(%r30)
8419 000838c 	sw	%r1, 9(%r30)
8420 0008390 	addi	%r1, %r3, 0
8421 0008394 	sw	%r31, 10(%r30)
8422 0008398 	addi	%r30, %r30, 11
8423 000839c 	jal	d_vec.2772
8424 00083a0 	addi	%r30, %r30, -11
8425 00083a4 	lw	%r31, 10(%r30)
8426 00083a8 	lw.s	%f0, 7(%r30)
8427 00083ac 	lw.s	%f1, 8(%r30)
8428 00083b0 	lw.s	%f2, 6(%r30)
8429 00083b4 	sw	%r31, 10(%r30)
8430 00083b8 	addi	%r30, %r30, 11
8431 00083bc 	jal	vecset.2665
8432 00083c0 	addi	%r30, %r30, -11
8433 00083c4 	lw	%r31, 10(%r30)
8434 00083c8 	lw	%r1, 0(%r30)
8435 00083cc 	addi	%r2, %r1, 40
8436 00083d0 	lw	%r3, 9(%r30)
8437 00083d4 	add	%r2, %r3, %r2
8438 00083d8 	lw	%r2, 0(%r2)
8439 00083dc 	addi	%r1, %r2, 0
8440 00083e0 	sw	%r31, 10(%r30)
8441 00083e4 	addi	%r30, %r30, 11
8442 00083e8 	jal	d_vec.2772
8443 00083ec 	addi	%r30, %r30, -11
8444 00083f0 	lw	%r31, 10(%r30)
8445 00083f4 	lw.s	%f0, 8(%r30)
8446 00083f8 	sw	%r1, 10(%r30)
8447 00083fc 	sw	%r31, 11(%r30)
8448 0008400 	addi	%r30, %r30, 12
8449 0008404 	jal	min_caml_fneg
8450 0008408 	addi	%r30, %r30, -12
8451 000840c 	lw	%r31, 11(%r30)
8452 0008410 	mov.s	%f2, %f0
8453 0008414 	lw.s	%f0, 7(%r30)
8454 0008418 	lw.s	%f1, 6(%r30)
8455 000841c 	lw	%r1, 10(%r30)
8456 0008420 	sw	%r31, 11(%r30)
8457 0008424 	addi	%r30, %r30, 12
8458 0008428 	jal	vecset.2665
8459 000842c 	addi	%r30, %r30, -12
8460 0008430 	lw	%r31, 11(%r30)
8461 0008434 	lw	%r1, 0(%r30)
8462 0008438 	addi	%r2, %r1, 80
8463 000843c 	lw	%r3, 9(%r30)
8464 0008440 	add	%r2, %r3, %r2
8465 0008444 	lw	%r2, 0(%r2)
8466 0008448 	addi	%r1, %r2, 0
8467 000844c 	sw	%r31, 11(%r30)
8468 0008450 	addi	%r30, %r30, 12
8469 0008454 	jal	d_vec.2772
8470 0008458 	addi	%r30, %r30, -12
8471 000845c 	lw	%r31, 11(%r30)
8472 0008460 	lw.s	%f0, 7(%r30)
8473 0008464 	sw	%r1, 11(%r30)
8474 0008468 	sw	%r31, 12(%r30)
8475 000846c 	addi	%r30, %r30, 13
8476 0008470 	jal	min_caml_fneg
8477 0008474 	addi	%r30, %r30, -13
8478 0008478 	lw	%r31, 12(%r30)
8479 000847c 	lw.s	%f1, 8(%r30)
8480 0008480 	sw.s	%f0, 12(%r30)
8481 0008484 	mov.s	%f0, %f1
8482 0008488 	sw	%r31, 13(%r30)
8483 000848c 	addi	%r30, %r30, 14
8484 0008490 	jal	min_caml_fneg
8485 0008494 	addi	%r30, %r30, -14
8486 0008498 	lw	%r31, 13(%r30)
8487 000849c 	mov.s	%f2, %f0
8488 00084a0 	lw.s	%f0, 6(%r30)
8489 00084a4 	lw.s	%f1, 12(%r30)
8490 00084a8 	lw	%r1, 11(%r30)
8491 00084ac 	sw	%r31, 13(%r30)
8492 00084b0 	addi	%r30, %r30, 14
8493 00084b4 	jal	vecset.2665
8494 00084b8 	addi	%r30, %r30, -14
8495 00084bc 	lw	%r31, 13(%r30)
8496 00084c0 	lw	%r1, 0(%r30)
8497 00084c4 	addi	%r2, %r1, 1
8498 00084c8 	lw	%r3, 9(%r30)
8499 00084cc 	add	%r2, %r3, %r2
8500 00084d0 	lw	%r2, 0(%r2)
8501 00084d4 	addi	%r1, %r2, 0
8502 00084d8 	sw	%r31, 13(%r30)
8503 00084dc 	addi	%r30, %r30, 14
8504 00084e0 	jal	d_vec.2772
8505 00084e4 	addi	%r30, %r30, -14
8506 00084e8 	lw	%r31, 13(%r30)
8507 00084ec 	lw.s	%f0, 7(%r30)
8508 00084f0 	sw	%r1, 13(%r30)
8509 00084f4 	sw	%r31, 14(%r30)
8510 00084f8 	addi	%r30, %r30, 15
8511 00084fc 	jal	min_caml_fneg
8512 0008500 	addi	%r30, %r30, -15
8513 0008504 	lw	%r31, 14(%r30)
8514 0008508 	lw.s	%f1, 8(%r30)
8515 000850c 	sw.s	%f0, 14(%r30)
8516 0008510 	mov.s	%f0, %f1
8517 0008514 	sw	%r31, 15(%r30)
8518 0008518 	addi	%r30, %r30, 16
8519 000851c 	jal	min_caml_fneg
8520 0008520 	addi	%r30, %r30, -16
8521 0008524 	lw	%r31, 15(%r30)
8522 0008528 	lw.s	%f1, 6(%r30)
8523 000852c 	sw.s	%f0, 15(%r30)
8524 0008530 	mov.s	%f0, %f1
8525 0008534 	sw	%r31, 16(%r30)
8526 0008538 	addi	%r30, %r30, 17
8527 000853c 	jal	min_caml_fneg
8528 0008540 	addi	%r30, %r30, -17
8529 0008544 	lw	%r31, 16(%r30)
8530 0008548 	mov.s	%f2, %f0
8531 000854c 	lw.s	%f0, 14(%r30)
8532 0008550 	lw.s	%f1, 15(%r30)
8533 0008554 	lw	%r1, 13(%r30)
8534 0008558 	sw	%r31, 16(%r30)
8535 000855c 	addi	%r30, %r30, 17
8536 0008560 	jal	vecset.2665
8537 0008564 	addi	%r30, %r30, -17
8538 0008568 	lw	%r31, 16(%r30)
8539 000856c 	lw	%r1, 0(%r30)
8540 0008570 	addi	%r2, %r1, 41
8541 0008574 	lw	%r3, 9(%r30)
8542 0008578 	add	%r2, %r3, %r2
8543 000857c 	lw	%r2, 0(%r2)
8544 0008580 	addi	%r1, %r2, 0
8545 0008584 	sw	%r31, 16(%r30)
8546 0008588 	addi	%r30, %r30, 17
8547 000858c 	jal	d_vec.2772
8548 0008590 	addi	%r30, %r30, -17
8549 0008594 	lw	%r31, 16(%r30)
8550 0008598 	lw.s	%f0, 7(%r30)
8551 000859c 	sw	%r1, 16(%r30)
8552 00085a0 	sw	%r31, 17(%r30)
8553 00085a4 	addi	%r30, %r30, 18
8554 00085a8 	jal	min_caml_fneg
8555 00085ac 	addi	%r30, %r30, -18
8556 00085b0 	lw	%r31, 17(%r30)
8557 00085b4 	lw.s	%f1, 6(%r30)
8558 00085b8 	sw.s	%f0, 17(%r30)
8559 00085bc 	mov.s	%f0, %f1
8560 00085c0 	sw	%r31, 18(%r30)
8561 00085c4 	addi	%r30, %r30, 19
8562 00085c8 	jal	min_caml_fneg
8563 00085cc 	addi	%r30, %r30, -19
8564 00085d0 	lw	%r31, 18(%r30)
8565 00085d4 	mov.s	%f1, %f0
8566 00085d8 	lw.s	%f0, 17(%r30)
8567 00085dc 	lw.s	%f2, 8(%r30)
8568 00085e0 	lw	%r1, 16(%r30)
8569 00085e4 	sw	%r31, 18(%r30)
8570 00085e8 	addi	%r30, %r30, 19
8571 00085ec 	jal	vecset.2665
8572 00085f0 	addi	%r30, %r30, -19
8573 00085f4 	lw	%r31, 18(%r30)
8574 00085f8 	lw	%r1, 0(%r30)
8575 00085fc 	addi	%r1, %r1, 81
8576 0008600 	lw	%r2, 9(%r30)
8577 0008604 	add	%r1, %r2, %r1
8578 0008608 	lw	%r1, 0(%r1)
8579 000860c 	sw	%r31, 18(%r30)
8580 0008610 	addi	%r30, %r30, 19
8581 0008614 	jal	d_vec.2772
8582 0008618 	addi	%r30, %r30, -19
8583 000861c 	lw	%r31, 18(%r30)
8584 0008620 	lw.s	%f0, 6(%r30)
8585 0008624 	sw	%r1, 18(%r30)
8586 0008628 	sw	%r31, 19(%r30)
8587 000862c 	addi	%r30, %r30, 20
8588 0008630 	jal	min_caml_fneg
8589 0008634 	addi	%r30, %r30, -20
8590 0008638 	lw	%r31, 19(%r30)
8591 000863c 	lw.s	%f1, 7(%r30)
8592 0008640 	lw.s	%f2, 8(%r30)
8593 0008644 	lw	%r1, 18(%r30)
8594 0008648 	j	vecset.2665
8595 000864c bne_else.9267:
8595 000864c 	sw.s	%f2, 19(%r30)
8596 0008650 	sw	%r3, 0(%r30)
8597 0008654 	sw	%r2, 1(%r30)
8598 0008658 	sw.s	%f3, 20(%r30)
8599 000865c 	sw	%r1, 21(%r30)
8600 0008660 	mov.s	%f0, %f1
8601 0008664 	mov.s	%f1, %f2
8602 0008668 	sw	%r31, 22(%r30)
8603 000866c 	addi	%r30, %r30, 23
8604 0008670 	jal	adjust_position.3089
8605 0008674 	addi	%r30, %r30, -23
8606 0008678 	lw	%r31, 22(%r30)
8607 000867c 	lw	%r1, 21(%r30)
8608 0008680 	addi	%r1, %r1, 1
8609 0008684 	lw.s	%f1, 20(%r30)
8610 0008688 	sw.s	%f0, 22(%r30)
8611 000868c 	sw	%r1, 23(%r30)
8612 0008690 	sw	%r31, 24(%r30)
8613 0008694 	addi	%r30, %r30, 25
8614 0008698 	jal	adjust_position.3089
8615 000869c 	addi	%r30, %r30, -25
8616 00086a0 	lw	%r31, 24(%r30)
8617 00086a4 	mov.s	%f1, %f0
8618 00086a8 	lw.s	%f0, 22(%r30)
8619 00086ac 	lw.s	%f2, 19(%r30)
8620 00086b0 	lw.s	%f3, 20(%r30)
8621 00086b4 	lw	%r1, 23(%r30)
8622 00086b8 	lw	%r2, 1(%r30)
8623 00086bc 	lw	%r3, 0(%r30)
8624 00086c0 	j	calc_dirvec.3092
8625 00086c4 calc_dirvecs.3100:
8625 00086c4 	addi	%r26, %r0, 0
8626 00086c8 	slt	%r28, %r26, %r1
8627 00086cc 	beq	%r28, %r0, bne_else.9268
8628 00086d0 	itof	%f1, %r1
8629 00086d4 	la	%r4, l.6474
8631 00086dc 	lw.s	%f2, 0(%r4)
8632 00086e0 	mul.s	%f1, %f1, %f2
8633 00086e4 	la	%r4, l.7165
8635 00086ec 	lw.s	%f2, 0(%r4)
8636 00086f0 	sub.s	%f2, %f1, %f2
8637 00086f4 	addi	%r4, %r0, 0
8638 00086f8 	la	%r5, l.6401
8640 0008700 	lw.s	%f1, 0(%r5)
8641 0008704 	la	%r5, l.6401
8643 000870c 	lw.s	%f3, 0(%r5)
8644 0008710 	sw	%r1, 0(%r30)
8645 0008714 	sw.s	%f0, 1(%r30)
8646 0008718 	sw	%r2, 2(%r30)
8647 000871c 	sw	%r3, 3(%r30)
8648 0008720 	addi	%r1, %r4, 0
8649 0008724 	mov.s	%f31, %f3
8650 0008728 	mov.s	%f3, %f0
8651 000872c 	mov.s	%f0, %f1
8652 0008730 	mov.s	%f1, %f31
8653 0008734 	sw	%r31, 4(%r30)
8654 0008738 	addi	%r30, %r30, 5
8655 000873c 	jal	calc_dirvec.3092
8656 0008740 	addi	%r30, %r30, -5
8657 0008744 	lw	%r31, 4(%r30)
8658 0008748 	lw	%r1, 0(%r30)
8659 000874c 	itof	%f0, %r1
8660 0008750 	la	%r2, l.6474
8662 0008758 	lw.s	%f1, 0(%r2)
8663 000875c 	mul.s	%f0, %f0, %f1
8664 0008760 	la	%r2, l.7037
8666 0008768 	lw.s	%f1, 0(%r2)
8667 000876c 	add.s	%f2, %f0, %f1
8668 0008770 	addi	%r2, %r0, 0
8669 0008774 	la	%r3, l.6401
8671 000877c 	lw.s	%f0, 0(%r3)
8672 0008780 	la	%r3, l.6401
8674 0008788 	lw.s	%f1, 0(%r3)
8675 000878c 	lw	%r3, 3(%r30)
8676 0008790 	addi	%r4, %r3, 2
8677 0008794 	lw.s	%f3, 1(%r30)
8678 0008798 	lw	%r5, 2(%r30)
8679 000879c 	addi	%r3, %r4, 0
8680 00087a0 	addi	%r1, %r2, 0
8681 00087a4 	addi	%r2, %r5, 0
8682 00087a8 	sw	%r31, 4(%r30)
8683 00087ac 	addi	%r30, %r30, 5
8684 00087b0 	jal	calc_dirvec.3092
8685 00087b4 	addi	%r30, %r30, -5
8686 00087b8 	lw	%r31, 4(%r30)
8687 00087bc 	lw	%r1, 0(%r30)
8688 00087c0 	addi	%r1, %r1, -1
8689 00087c4 	addi	%r2, %r0, 1
8690 00087c8 	lw	%r3, 2(%r30)
8691 00087cc 	sw	%r1, 4(%r30)
8692 00087d0 	addi	%r1, %r3, 0
8693 00087d4 	sw	%r31, 5(%r30)
8694 00087d8 	addi	%r30, %r30, 6
8695 00087dc 	jal	add_mod5.2662
8696 00087e0 	addi	%r30, %r30, -6
8697 00087e4 	lw	%r31, 5(%r30)
8698 00087e8 	addi	%r2, %r1, 0
8699 00087ec 	lw.s	%f0, 1(%r30)
8700 00087f0 	lw	%r1, 4(%r30)
8701 00087f4 	lw	%r3, 3(%r30)
8702 00087f8 	j	calc_dirvecs.3100
8703 00087fc bne_else.9268:
8703 00087fc 	jr	%r31
8704 0008800 calc_dirvec_rows.3105:
8704 0008800 	addi	%r26, %r0, 0
8705 0008804 	slt	%r28, %r26, %r1
8706 0008808 	beq	%r28, %r0, bne_else.9270
8707 000880c 	itof	%f0, %r1
8708 0008810 	la	%r4, l.6474
8710 0008818 	lw.s	%f1, 0(%r4)
8711 000881c 	mul.s	%f0, %f0, %f1
8712 0008820 	la	%r4, l.7165
8714 0008828 	lw.s	%f1, 0(%r4)
8715 000882c 	sub.s	%f0, %f0, %f1
8716 0008830 	addi	%r4, %r0, 4
8717 0008834 	sw	%r3, 0(%r30)
8718 0008838 	sw	%r2, 1(%r30)
8719 000883c 	sw	%r1, 2(%r30)
8720 0008840 	addi	%r1, %r4, 0
8721 0008844 	sw	%r31, 3(%r30)
8722 0008848 	addi	%r30, %r30, 4
8723 000884c 	jal	calc_dirvecs.3100
8724 0008850 	addi	%r30, %r30, -4
8725 0008854 	lw	%r31, 3(%r30)
8726 0008858 	lw	%r1, 2(%r30)
8727 000885c 	addi	%r1, %r1, -1
8728 0008860 	addi	%r2, %r0, 2
8729 0008864 	lw	%r3, 1(%r30)
8730 0008868 	sw	%r1, 3(%r30)
8731 000886c 	addi	%r1, %r3, 0
8732 0008870 	sw	%r31, 4(%r30)
8733 0008874 	addi	%r30, %r30, 5
8734 0008878 	jal	add_mod5.2662
8735 000887c 	addi	%r30, %r30, -5
8736 0008880 	lw	%r31, 4(%r30)
8737 0008884 	addi	%r2, %r1, 0
8738 0008888 	lw	%r1, 0(%r30)
8739 000888c 	addi	%r3, %r1, 4
8740 0008890 	lw	%r1, 3(%r30)
8741 0008894 	j	calc_dirvec_rows.3105
8742 0008898 bne_else.9270:
8742 0008898 	jr	%r31
8743 000889c create_dirvec.3109:
8743 000889c 	addi	%r1, %r0, 3
8744 00088a0 	la	%r2, l.6401
8746 00088a8 	lw.s	%f0, 0(%r2)
8747 00088ac 	sw	%r31, 0(%r30)
8748 00088b0 	addi	%r30, %r30, 1
8749 00088b4 	jal	min_caml_create_float_array
8750 00088b8 	addi	%r30, %r30, -1
8751 00088bc 	lw	%r31, 0(%r30)
8752 00088c0 	addi	%r2, %r1, 0
8753 00088c4 	la	%r1, const_array.6358
8755 00088cc 	addi	%r1, %r1, 0
8756 00088d0 	lw	%r1, 0(%r1)
8757 00088d4 	sw	%r2, 0(%r30)
8758 00088d8 	sw	%r31, 1(%r30)
8759 00088dc 	addi	%r30, %r30, 2
8760 00088e0 	jal	min_caml_create_array
8761 00088e4 	addi	%r30, %r30, -2
8762 00088e8 	lw	%r31, 1(%r30)
8763 00088ec 	addi	%r2, %r29, 0
8764 00088f0 	addi	%r29, %r29, 2
8765 00088f4 	sw	%r1, 1(%r2)
8766 00088f8 	lw	%r1, 0(%r30)
8767 00088fc 	sw	%r1, 0(%r2)
8768 0008900 	addi	%r1, %r2, 0
8769 0008904 	jr	%r31
8770 0008908 create_dirvec_elements.3111:
8770 0008908 	addi	%r26, %r0, 0
8771 000890c 	slt	%r28, %r26, %r2
8772 0008910 	beq	%r28, %r0, bne_else.9272
8773 0008914 	sw	%r1, 0(%r30)
8774 0008918 	sw	%r2, 1(%r30)
8775 000891c 	sw	%r31, 2(%r30)
8776 0008920 	addi	%r30, %r30, 3
8777 0008924 	jal	create_dirvec.3109
8778 0008928 	addi	%r30, %r30, -3
8779 000892c 	lw	%r31, 2(%r30)
8780 0008930 	lw	%r2, 1(%r30)
8781 0008934 	lw	%r3, 0(%r30)
8782 0008938 	add	%r4, %r3, %r2
8783 000893c 	sw	%r1, 0(%r4)
8784 0008940 	addi	%r2, %r2, -1
8785 0008944 	addi	%r1, %r3, 0
8786 0008948 	j	create_dirvec_elements.3111
8787 000894c bne_else.9272:
8787 000894c 	jr	%r31
8788 0008950 create_dirvecs.3114:
8788 0008950 	la	%r2, const_array.6390
8790 0008958 	addi	%r26, %r0, 0
8791 000895c 	slt	%r28, %r26, %r1
8792 0008960 	beq	%r28, %r0, bne_else.9274
8793 0008964 	addi	%r3, %r0, 120
8794 0008968 	sw	%r1, 0(%r30)
8795 000896c 	sw	%r2, 1(%r30)
8796 0008970 	sw	%r3, 2(%r30)
8797 0008974 	sw	%r31, 3(%r30)
8798 0008978 	addi	%r30, %r30, 4
8799 000897c 	jal	create_dirvec.3109
8800 0008980 	addi	%r30, %r30, -4
8801 0008984 	lw	%r31, 3(%r30)
8802 0008988 	addi	%r2, %r1, 0
8803 000898c 	lw	%r1, 2(%r30)
8804 0008990 	sw	%r31, 3(%r30)
8805 0008994 	addi	%r30, %r30, 4
8806 0008998 	jal	min_caml_create_array
8807 000899c 	addi	%r30, %r30, -4
8808 00089a0 	lw	%r31, 3(%r30)
8809 00089a4 	lw	%r2, 0(%r30)
8810 00089a8 	lw	%r3, 1(%r30)
8811 00089ac 	add	%r4, %r3, %r2
8812 00089b0 	sw	%r1, 0(%r4)
8813 00089b4 	add	%r1, %r3, %r2
8814 00089b8 	lw	%r1, 0(%r1)
8815 00089bc 	addi	%r3, %r0, 118
8816 00089c0 	addi	%r2, %r3, 0
8817 00089c4 	sw	%r31, 3(%r30)
8818 00089c8 	addi	%r30, %r30, 4
8819 00089cc 	jal	create_dirvec_elements.3111
8820 00089d0 	addi	%r30, %r30, -4
8821 00089d4 	lw	%r31, 3(%r30)
8822 00089d8 	lw	%r1, 0(%r30)
8823 00089dc 	addi	%r1, %r1, -1
8824 00089e0 	j	create_dirvecs.3114
8825 00089e4 bne_else.9274:
8825 00089e4 	jr	%r31
8826 00089e8 init_dirvec_constants.3116:
8826 00089e8 	addi	%r26, %r0, 0
8827 00089ec 	slt	%r28, %r26, %r2
8828 00089f0 	beq	%r28, %r0, bne_else.9276
8829 00089f4 	add	%r3, %r1, %r2
8830 00089f8 	lw	%r3, 0(%r3)
8831 00089fc 	sw	%r1, 0(%r30)
8832 0008a00 	sw	%r2, 1(%r30)
8833 0008a04 	addi	%r1, %r3, 0
8834 0008a08 	sw	%r31, 2(%r30)
8835 0008a0c 	addi	%r30, %r30, 3
8836 0008a10 	jal	setup_dirvec_constants.2901
8837 0008a14 	addi	%r30, %r30, -3
8838 0008a18 	lw	%r31, 2(%r30)
8839 0008a1c 	lw	%r1, 1(%r30)
8840 0008a20 	addi	%r2, %r1, -1
8841 0008a24 	lw	%r1, 0(%r30)
8842 0008a28 	j	init_dirvec_constants.3116
8843 0008a2c bne_else.9276:
8843 0008a2c 	jr	%r31
8844 0008a30 init_vecset_constants.3119:
8844 0008a30 	la	%r2, const_array.6390
8846 0008a38 	addi	%r26, %r0, 0
8847 0008a3c 	slt	%r28, %r26, %r1
8848 0008a40 	beq	%r28, %r0, bne_else.9278
8849 0008a44 	add	%r2, %r2, %r1
8850 0008a48 	lw	%r2, 0(%r2)
8851 0008a4c 	addi	%r3, %r0, 119
8852 0008a50 	sw	%r1, 0(%r30)
8853 0008a54 	addi	%r1, %r2, 0
8854 0008a58 	addi	%r2, %r3, 0
8855 0008a5c 	sw	%r31, 1(%r30)
8856 0008a60 	addi	%r30, %r30, 2
8857 0008a64 	jal	init_dirvec_constants.3116
8858 0008a68 	addi	%r30, %r30, -2
8859 0008a6c 	lw	%r31, 1(%r30)
8860 0008a70 	lw	%r1, 0(%r30)
8861 0008a74 	addi	%r1, %r1, -1
8862 0008a78 	j	init_vecset_constants.3119
8863 0008a7c bne_else.9278:
8863 0008a7c 	jr	%r31
8864 0008a80 init_dirvecs.3121:
8864 0008a80 	addi	%r1, %r0, 4
8865 0008a84 	sw	%r31, 0(%r30)
8866 0008a88 	addi	%r30, %r30, 1
8867 0008a8c 	jal	create_dirvecs.3114
8868 0008a90 	addi	%r30, %r30, -1
8869 0008a94 	lw	%r31, 0(%r30)
8870 0008a98 	addi	%r1, %r0, 9
8871 0008a9c 	addi	%r2, %r0, 0
8872 0008aa0 	addi	%r3, %r0, 0
8873 0008aa4 	sw	%r31, 0(%r30)
8874 0008aa8 	addi	%r30, %r30, 1
8875 0008aac 	jal	calc_dirvec_rows.3105
8876 0008ab0 	addi	%r30, %r30, -1
8877 0008ab4 	lw	%r31, 0(%r30)
8878 0008ab8 	addi	%r1, %r0, 4
8879 0008abc 	j	init_vecset_constants.3119
8880 0008ac0 add_reflection.3123:
8880 0008ac0 	sw	%r1, 0(%r30)
8881 0008ac4 	sw	%r2, 1(%r30)
8882 0008ac8 	sw.s	%f0, 2(%r30)
8883 0008acc 	sw.s	%f3, 3(%r30)
8884 0008ad0 	sw.s	%f2, 4(%r30)
8885 0008ad4 	sw.s	%f1, 5(%r30)
8886 0008ad8 	sw	%r31, 6(%r30)
8887 0008adc 	addi	%r30, %r30, 7
8888 0008ae0 	jal	create_dirvec.3109
8889 0008ae4 	addi	%r30, %r30, -7
8890 0008ae8 	lw	%r31, 6(%r30)
8891 0008aec 	sw	%r1, 6(%r30)
8892 0008af0 	sw	%r31, 7(%r30)
8893 0008af4 	addi	%r30, %r30, 8
8894 0008af8 	jal	d_vec.2772
8895 0008afc 	addi	%r30, %r30, -8
8896 0008b00 	lw	%r31, 7(%r30)
8897 0008b04 	lw.s	%f0, 5(%r30)
8898 0008b08 	lw.s	%f1, 4(%r30)
8899 0008b0c 	lw.s	%f2, 3(%r30)
8900 0008b10 	sw	%r31, 7(%r30)
8901 0008b14 	addi	%r30, %r30, 8
8902 0008b18 	jal	vecset.2665
8903 0008b1c 	addi	%r30, %r30, -8
8904 0008b20 	lw	%r31, 7(%r30)
8905 0008b24 	lw	%r1, 6(%r30)
8906 0008b28 	sw	%r31, 7(%r30)
8907 0008b2c 	addi	%r30, %r30, 8
8908 0008b30 	jal	setup_dirvec_constants.2901
8909 0008b34 	addi	%r30, %r30, -8
8910 0008b38 	lw	%r31, 7(%r30)
8911 0008b3c 	addi	%r1, %r29, 0
8912 0008b40 	addi	%r29, %r29, 3
8913 0008b44 	lw.s	%f0, 2(%r30)
8914 0008b48 	sw.s	%f0, 2(%r1)
8915 0008b4c 	lw	%r2, 6(%r30)
8916 0008b50 	sw	%r2, 1(%r1)
8917 0008b54 	lw	%r2, 1(%r30)
8918 0008b58 	sw	%r2, 0(%r1)
8919 0008b5c 	addi	%r1, %r1, 0
8920 0008b60 	la	%r2, const_array.6399
8922 0008b68 	lw	%r3, 0(%r30)
8923 0008b6c 	add	%r2, %r2, %r3
8924 0008b70 	sw	%r1, 0(%r2)
8925 0008b74 	jr	%r31
8926 0008b78 setup_rect_reflection.3130:
8926 0008b78 	sll	%r1, %r1, 2
8927 0008b7c 	la	%r3, const_array.6400
8929 0008b84 	addi	%r4, %r3, 0
8930 0008b88 	lw	%r4, 0(%r4)
8931 0008b8c 	la	%r5, l.6407
8933 0008b94 	lw.s	%f0, 0(%r5)
8934 0008b98 	sw	%r3, 0(%r30)
8935 0008b9c 	sw	%r4, 1(%r30)
8936 0008ba0 	sw	%r1, 2(%r30)
8937 0008ba4 	sw.s	%f0, 3(%r30)
8938 0008ba8 	addi	%r1, %r2, 0
8939 0008bac 	sw	%r31, 4(%r30)
8940 0008bb0 	addi	%r30, %r30, 5
8941 0008bb4 	jal	o_diffuse.2735
8942 0008bb8 	addi	%r30, %r30, -5
8943 0008bbc 	lw	%r31, 4(%r30)
8944 0008bc0 	lw.s	%f1, 3(%r30)
8945 0008bc4 	sub.s	%f0, %f1, %f0
8946 0008bc8 	la	%r1, const_array.6364
8948 0008bd0 	addi	%r2, %r1, 0
8949 0008bd4 	lw.s	%f1, 0(%r2)
8950 0008bd8 	sw.s	%f0, 4(%r30)
8951 0008bdc 	sw	%r1, 5(%r30)
8952 0008be0 	mov.s	%f0, %f1
8953 0008be4 	sw	%r31, 6(%r30)
8954 0008be8 	addi	%r30, %r30, 7
8955 0008bec 	jal	min_caml_fneg
8956 0008bf0 	addi	%r30, %r30, -7
8957 0008bf4 	lw	%r31, 6(%r30)
8958 0008bf8 	lw	%r1, 5(%r30)
8959 0008bfc 	addi	%r2, %r1, 1
8960 0008c00 	lw.s	%f1, 0(%r2)
8961 0008c04 	sw.s	%f0, 6(%r30)
8962 0008c08 	mov.s	%f0, %f1
8963 0008c0c 	sw	%r31, 7(%r30)
8964 0008c10 	addi	%r30, %r30, 8
8965 0008c14 	jal	min_caml_fneg
8966 0008c18 	addi	%r30, %r30, -8
8967 0008c1c 	lw	%r31, 7(%r30)
8968 0008c20 	lw	%r1, 5(%r30)
8969 0008c24 	addi	%r2, %r1, 2
8970 0008c28 	lw.s	%f1, 0(%r2)
8971 0008c2c 	sw.s	%f0, 7(%r30)
8972 0008c30 	mov.s	%f0, %f1
8973 0008c34 	sw	%r31, 8(%r30)
8974 0008c38 	addi	%r30, %r30, 9
8975 0008c3c 	jal	min_caml_fneg
8976 0008c40 	addi	%r30, %r30, -9
8977 0008c44 	lw	%r31, 8(%r30)
8978 0008c48 	mov.s	%f3, %f0
8979 0008c4c 	lw	%r1, 2(%r30)
8980 0008c50 	addi	%r2, %r1, 1
8981 0008c54 	lw	%r3, 5(%r30)
8982 0008c58 	addi	%r4, %r3, 0
8983 0008c5c 	lw.s	%f1, 0(%r4)
8984 0008c60 	lw.s	%f0, 4(%r30)
8985 0008c64 	lw.s	%f2, 7(%r30)
8986 0008c68 	lw	%r4, 1(%r30)
8987 0008c6c 	sw.s	%f3, 8(%r30)
8988 0008c70 	addi	%r1, %r4, 0
8989 0008c74 	sw	%r31, 9(%r30)
8990 0008c78 	addi	%r30, %r30, 10
8991 0008c7c 	jal	add_reflection.3123
8992 0008c80 	addi	%r30, %r30, -10
8993 0008c84 	lw	%r31, 9(%r30)
8994 0008c88 	lw	%r1, 1(%r30)
8995 0008c8c 	addi	%r2, %r1, 1
8996 0008c90 	lw	%r3, 2(%r30)
8997 0008c94 	addi	%r4, %r3, 2
8998 0008c98 	lw	%r5, 5(%r30)
8999 0008c9c 	addi	%r6, %r5, 1
9000 0008ca0 	lw.s	%f2, 0(%r6)
9001 0008ca4 	lw.s	%f0, 4(%r30)
9002 0008ca8 	lw.s	%f1, 6(%r30)
9003 0008cac 	lw.s	%f3, 8(%r30)
9004 0008cb0 	addi	%r1, %r2, 0
9005 0008cb4 	addi	%r2, %r4, 0
9006 0008cb8 	sw	%r31, 9(%r30)
9007 0008cbc 	addi	%r30, %r30, 10
9008 0008cc0 	jal	add_reflection.3123
9009 0008cc4 	addi	%r30, %r30, -10
9010 0008cc8 	lw	%r31, 9(%r30)
9011 0008ccc 	lw	%r1, 1(%r30)
9012 0008cd0 	addi	%r2, %r1, 2
9013 0008cd4 	lw	%r3, 2(%r30)
9014 0008cd8 	addi	%r3, %r3, 3
9015 0008cdc 	lw	%r4, 5(%r30)
9016 0008ce0 	addi	%r4, %r4, 2
9017 0008ce4 	lw.s	%f3, 0(%r4)
9018 0008ce8 	lw.s	%f0, 4(%r30)
9019 0008cec 	lw.s	%f1, 6(%r30)
9020 0008cf0 	lw.s	%f2, 7(%r30)
9021 0008cf4 	addi	%r1, %r2, 0
9022 0008cf8 	addi	%r2, %r3, 0
9023 0008cfc 	sw	%r31, 9(%r30)
9024 0008d00 	addi	%r30, %r30, 10
9025 0008d04 	jal	add_reflection.3123
9026 0008d08 	addi	%r30, %r30, -10
9027 0008d0c 	lw	%r31, 9(%r30)
9028 0008d10 	lw	%r1, 1(%r30)
9029 0008d14 	addi	%r1, %r1, 3
9030 0008d18 	lw	%r2, 0(%r30)
9031 0008d1c 	addi	%r2, %r2, 0
9032 0008d20 	sw	%r1, 0(%r2)
9033 0008d24 	jr	%r31
9034 0008d28 setup_surface_reflection.3133:
9034 0008d28 	sll	%r1, %r1, 2
9035 0008d2c 	addi	%r1, %r1, 1
9036 0008d30 	la	%r3, const_array.6400
9038 0008d38 	addi	%r4, %r3, 0
9039 0008d3c 	lw	%r4, 0(%r4)
9040 0008d40 	la	%r5, l.6407
9042 0008d48 	lw.s	%f0, 0(%r5)
9043 0008d4c 	sw	%r3, 0(%r30)
9044 0008d50 	sw	%r1, 1(%r30)
9045 0008d54 	sw	%r4, 2(%r30)
9046 0008d58 	sw	%r2, 3(%r30)
9047 0008d5c 	sw.s	%f0, 4(%r30)
9048 0008d60 	addi	%r1, %r2, 0
9049 0008d64 	sw	%r31, 5(%r30)
9050 0008d68 	addi	%r30, %r30, 6
9051 0008d6c 	jal	o_diffuse.2735
9052 0008d70 	addi	%r30, %r30, -6
9053 0008d74 	lw	%r31, 5(%r30)
9054 0008d78 	lw.s	%f1, 4(%r30)
9055 0008d7c 	sub.s	%f0, %f1, %f0
9056 0008d80 	lw	%r1, 3(%r30)
9057 0008d84 	sw.s	%f0, 5(%r30)
9058 0008d88 	sw	%r31, 6(%r30)
9059 0008d8c 	addi	%r30, %r30, 7
9060 0008d90 	jal	o_param_abc.2727
9061 0008d94 	addi	%r30, %r30, -7
9062 0008d98 	lw	%r31, 6(%r30)
9063 0008d9c 	addi	%r2, %r1, 0
9064 0008da0 	la	%r1, const_array.6364
9066 0008da8 	sw	%r1, 6(%r30)
9067 0008dac 	sw	%r31, 7(%r30)
9068 0008db0 	addi	%r30, %r30, 8
9069 0008db4 	jal	veciprod.2686
9070 0008db8 	addi	%r30, %r30, -8
9071 0008dbc 	lw	%r31, 7(%r30)
9072 0008dc0 	la	%r1, l.6641
9074 0008dc8 	lw.s	%f1, 0(%r1)
9075 0008dcc 	lw	%r1, 3(%r30)
9076 0008dd0 	sw.s	%f0, 7(%r30)
9077 0008dd4 	sw.s	%f1, 8(%r30)
9078 0008dd8 	sw	%r31, 9(%r30)
9079 0008ddc 	addi	%r30, %r30, 10
9080 0008de0 	jal	o_param_a.2721
9081 0008de4 	addi	%r30, %r30, -10
9082 0008de8 	lw	%r31, 9(%r30)
9083 0008dec 	lw.s	%f1, 8(%r30)
9084 0008df0 	mul.s	%f0, %f1, %f0
9085 0008df4 	lw.s	%f1, 7(%r30)
9086 0008df8 	mul.s	%f0, %f0, %f1
9087 0008dfc 	lw	%r1, 6(%r30)
9088 0008e00 	addi	%r2, %r1, 0
9089 0008e04 	lw.s	%f2, 0(%r2)
9090 0008e08 	sub.s	%f0, %f0, %f2
9091 0008e0c 	la	%r2, l.6641
9093 0008e14 	lw.s	%f2, 0(%r2)
9094 0008e18 	lw	%r2, 3(%r30)
9095 0008e1c 	sw.s	%f0, 9(%r30)
9096 0008e20 	sw.s	%f2, 10(%r30)
9097 0008e24 	addi	%r1, %r2, 0
9098 0008e28 	sw	%r31, 11(%r30)
9099 0008e2c 	addi	%r30, %r30, 12
9100 0008e30 	jal	o_param_b.2723
9101 0008e34 	addi	%r30, %r30, -12
9102 0008e38 	lw	%r31, 11(%r30)
9103 0008e3c 	lw.s	%f1, 10(%r30)
9104 0008e40 	mul.s	%f0, %f1, %f0
9105 0008e44 	lw.s	%f1, 7(%r30)
9106 0008e48 	mul.s	%f0, %f0, %f1
9107 0008e4c 	lw	%r1, 6(%r30)
9108 0008e50 	addi	%r2, %r1, 1
9109 0008e54 	lw.s	%f2, 0(%r2)
9110 0008e58 	sub.s	%f0, %f0, %f2
9111 0008e5c 	la	%r2, l.6641
9113 0008e64 	lw.s	%f2, 0(%r2)
9114 0008e68 	lw	%r2, 3(%r30)
9115 0008e6c 	sw.s	%f0, 11(%r30)
9116 0008e70 	sw.s	%f2, 12(%r30)
9117 0008e74 	addi	%r1, %r2, 0
9118 0008e78 	sw	%r31, 13(%r30)
9119 0008e7c 	addi	%r30, %r30, 14
9120 0008e80 	jal	o_param_c.2725
9121 0008e84 	addi	%r30, %r30, -14
9122 0008e88 	lw	%r31, 13(%r30)
9123 0008e8c 	lw.s	%f1, 12(%r30)
9124 0008e90 	mul.s	%f0, %f1, %f0
9125 0008e94 	lw.s	%f1, 7(%r30)
9126 0008e98 	mul.s	%f0, %f0, %f1
9127 0008e9c 	lw	%r1, 6(%r30)
9128 0008ea0 	addi	%r1, %r1, 2
9129 0008ea4 	lw.s	%f1, 0(%r1)
9130 0008ea8 	sub.s	%f3, %f0, %f1
9131 0008eac 	lw.s	%f0, 5(%r30)
9132 0008eb0 	lw.s	%f1, 9(%r30)
9133 0008eb4 	lw.s	%f2, 11(%r30)
9134 0008eb8 	lw	%r1, 2(%r30)
9135 0008ebc 	lw	%r2, 1(%r30)
9136 0008ec0 	sw	%r31, 13(%r30)
9137 0008ec4 	addi	%r30, %r30, 14
9138 0008ec8 	jal	add_reflection.3123
9139 0008ecc 	addi	%r30, %r30, -14
9140 0008ed0 	lw	%r31, 13(%r30)
9141 0008ed4 	lw	%r1, 2(%r30)
9142 0008ed8 	addi	%r1, %r1, 1
9143 0008edc 	lw	%r2, 0(%r30)
9144 0008ee0 	addi	%r2, %r2, 0
9145 0008ee4 	sw	%r1, 0(%r2)
9146 0008ee8 	jr	%r31
9147 0008eec setup_reflections.3136:
9147 0008eec 	la	%r2, const_array.6361
9149 0008ef4 	addi	%r26, %r0, 0
9150 0008ef8 	slt	%r28, %r26, %r1
9151 0008efc 	beq	%r28, %r0, bne_else.9283
9152 0008f00 	add	%r2, %r2, %r1
9153 0008f04 	lw	%r2, 0(%r2)
9154 0008f08 	sw	%r1, 0(%r30)
9155 0008f0c 	sw	%r2, 1(%r30)
9156 0008f10 	addi	%r1, %r2, 0
9157 0008f14 	sw	%r31, 2(%r30)
9158 0008f18 	addi	%r30, %r30, 3
9159 0008f1c 	jal	o_reflectiontype.2715
9160 0008f20 	addi	%r30, %r30, -3
9161 0008f24 	lw	%r31, 2(%r30)
9162 0008f28 	addi	%r26, %r0, 2
9163 0008f2c 	bne	%r1, %r26, beq_else.9284
9164 0008f30 	lw	%r1, 1(%r30)
9165 0008f34 	sw	%r31, 2(%r30)
9166 0008f38 	addi	%r30, %r30, 3
9167 0008f3c 	jal	o_diffuse.2735
9168 0008f40 	addi	%r30, %r30, -3
9169 0008f44 	lw	%r31, 2(%r30)
9170 0008f48 	la	%r1, l.6407
9172 0008f50 	lw.s	%f1, 0(%r1)
9173 0008f54 	sw	%r31, 2(%r30)
9174 0008f58 	addi	%r30, %r30, 3
9175 0008f5c 	jal	fless.2627
9176 0008f60 	addi	%r30, %r30, -3
9177 0008f64 	lw	%r31, 2(%r30)
9178 0008f68 	addi	%r26, %r0, 0
9179 0008f6c 	bne	%r1, %r26, beq_else.9285
9180 0008f70 	jr	%r31
9181 0008f74 beq_else.9285:
9181 0008f74 	lw	%r1, 1(%r30)
9182 0008f78 	sw	%r31, 2(%r30)
9183 0008f7c 	addi	%r30, %r30, 3
9184 0008f80 	jal	o_form.2713
9185 0008f84 	addi	%r30, %r30, -3
9186 0008f88 	lw	%r31, 2(%r30)
9187 0008f8c 	addi	%r26, %r0, 1
9188 0008f90 	bne	%r1, %r26, beq_else.9287
9189 0008f94 	lw	%r1, 0(%r30)
9190 0008f98 	lw	%r2, 1(%r30)
9191 0008f9c 	j	setup_rect_reflection.3130
9192 0008fa0 beq_else.9287:
9192 0008fa0 	addi	%r26, %r0, 2
9193 0008fa4 	bne	%r1, %r26, beq_else.9288
9194 0008fa8 	lw	%r1, 0(%r30)
9195 0008fac 	lw	%r2, 1(%r30)
9196 0008fb0 	j	setup_surface_reflection.3133
9197 0008fb4 beq_else.9288:
9197 0008fb4 	jr	%r31
9198 0008fb8 beq_else.9284:
9198 0008fb8 	jr	%r31
9199 0008fbc bne_else.9283:
9199 0008fbc 	jr	%r31
9200 0008fc0 rt.3138:
9200 0008fc0 	lw	%r3, 3(%r27)
9201 0008fc4 	lw	%r4, 2(%r27)
9202 0008fc8 	lw	%r5, 1(%r27)
9203 0008fcc 	la	%r6, const_array.6377
9205 0008fd4 	addi	%r7, %r6, 0
9206 0008fd8 	sw	%r1, 0(%r7)
9207 0008fdc 	addi	%r6, %r6, 1
9208 0008fe0 	sw	%r2, 0(%r6)
9209 0008fe4 	addi	%r2, %r0, 64
9210 0008fe8 	la	%r6, const_array.6378
9212 0008ff0 	addi	%r7, %r6, 0
9213 0008ff4 	sw	%r2, 0(%r7)
9214 0008ff8 	addi	%r2, %r0, 64
9215 0008ffc 	addi	%r6, %r6, 1
9216 0009000 	sw	%r2, 0(%r6)
9217 0009004 	la	%r2, l.7214
9219 000900c 	lw.s	%f0, 0(%r2)
9220 0009010 	itof	%f1, %r1
9221 0009014 	div.s	%f0, %f0, %f1
9222 0009018 	la	%r1, const_array.6379
9224 0009020 	addi	%r1, %r1, 0
9225 0009024 	sw.s	%f0, 0(%r1)
9226 0009028 	sw	%r3, 0(%r30)
9227 000902c 	sw	%r5, 1(%r30)
9228 0009030 	sw	%r4, 2(%r30)
9229 0009034 	sw	%r31, 3(%r30)
9230 0009038 	addi	%r30, %r30, 4
9231 000903c 	jal	create_pixelline.3085
9232 0009040 	addi	%r30, %r30, -4
9233 0009044 	lw	%r31, 3(%r30)
9234 0009048 	sw	%r1, 3(%r30)
9235 000904c 	sw	%r31, 4(%r30)
9236 0009050 	addi	%r30, %r30, 5
9237 0009054 	jal	create_pixelline.3085
9238 0009058 	addi	%r30, %r30, -5
9239 000905c 	lw	%r31, 4(%r30)
9240 0009060 	sw	%r1, 4(%r30)
9241 0009064 	sw	%r31, 5(%r30)
9242 0009068 	addi	%r30, %r30, 6
9243 000906c 	jal	create_pixelline.3085
9244 0009070 	addi	%r30, %r30, -6
9245 0009074 	lw	%r31, 5(%r30)
9246 0009078 	lw	%r27, 2(%r30)
9247 000907c 	sw	%r1, 5(%r30)
9248 0009080 	sw	%r31, 6(%r30)
9249 0009084 	lw	%r26, 0(%r27)
9250 0009088 	addi	%r30, %r30, 7
9251 000908c 	jalr	%r26
9252 0009090 	addi	%r30, %r30, -7
9253 0009094 	lw	%r31, 6(%r30)
9254 0009098 	sw	%r31, 6(%r30)
9255 000909c 	addi	%r30, %r30, 7
9256 00090a0 	jal	write_ppm_header.3046
9257 00090a4 	addi	%r30, %r30, -7
9258 00090a8 	lw	%r31, 6(%r30)
9259 00090ac 	sw	%r31, 6(%r30)
9260 00090b0 	addi	%r30, %r30, 7
9261 00090b4 	jal	init_dirvecs.3121
9262 00090b8 	addi	%r30, %r30, -7
9263 00090bc 	lw	%r31, 6(%r30)
9264 00090c0 	la	%r1, const_tuple.6394
9266 00090c8 	sw	%r1, 6(%r30)
9267 00090cc 	sw	%r31, 7(%r30)
9268 00090d0 	addi	%r30, %r30, 8
9269 00090d4 	jal	d_vec.2772
9270 00090d8 	addi	%r30, %r30, -8
9271 00090dc 	lw	%r31, 7(%r30)
9272 00090e0 	la	%r2, const_array.6364
9274 00090e8 	sw	%r31, 7(%r30)
9275 00090ec 	addi	%r30, %r30, 8
9276 00090f0 	jal	veccpy.2675
9277 00090f4 	addi	%r30, %r30, -8
9278 00090f8 	lw	%r31, 7(%r30)
9279 00090fc 	lw	%r1, 6(%r30)
9280 0009100 	sw	%r31, 7(%r30)
9281 0009104 	addi	%r30, %r30, 8
9282 0009108 	jal	setup_dirvec_constants.2901
9283 000910c 	addi	%r30, %r30, -8
9284 0009110 	lw	%r31, 7(%r30)
9285 0009114 	la	%r1, const_array.6358
9287 000911c 	addi	%r1, %r1, 0
9288 0009120 	lw	%r1, 0(%r1)
9289 0009124 	addi	%r1, %r1, -1
9290 0009128 	sw	%r31, 7(%r30)
9291 000912c 	addi	%r30, %r30, 8
9292 0009130 	jal	setup_reflections.3136
9293 0009134 	addi	%r30, %r30, -8
9294 0009138 	lw	%r31, 7(%r30)
9295 000913c 	addi	%r2, %r0, 0
9296 0009140 	addi	%r3, %r0, 0
9297 0009144 	lw	%r1, 4(%r30)
9298 0009148 	lw	%r27, 1(%r30)
9299 000914c 	sw	%r31, 7(%r30)
9300 0009150 	lw	%r26, 0(%r27)
9301 0009154 	addi	%r30, %r30, 8
9302 0009158 	jalr	%r26
9303 000915c 	addi	%r30, %r30, -8
9304 0009160 	lw	%r31, 7(%r30)
9305 0009164 	addi	%r1, %r0, 0
9306 0009168 	addi	%r5, %r0, 2
9307 000916c 	lw	%r2, 3(%r30)
9308 0009170 	lw	%r3, 4(%r30)
9309 0009174 	lw	%r4, 5(%r30)
9310 0009178 	lw	%r27, 0(%r30)
9311 000917c 	lw	%r26, 0(%r27)
9312 0009180 	jr	%r26
9313 0009184 min_caml_create_array:
9313 0009184 	ori	%r3, %r1, 0
9314 0009188 	ori	%r1, %r29, 0
9315 000918c create_array_loop:
9315 000918c 	bne	%r3, %r0, create_array_cont
9316 0009190 	jr	%r31
9317 0009194 create_array_cont:
9317 0009194 	sw	%r2, 0(%r29)
9318 0009198 	addi  	%r3, %r3, -1
9319 000919c 	addi	%r29, %r29, 1
9320 00091a0 	j	create_array_loop
9321 00091a4 min_caml_create_float_array:
9321 00091a4 	ori	%r2, %r1, 0
9322 00091a8 	ori	%r1, %r29, 0
9323 00091ac create_float_array_loop:
9323 00091ac 	bne	%r2, %r0, create_float_array_cont
9324 00091b0 	jr	%r31
9325 00091b4 create_float_array_cont:
9325 00091b4 	sw.s	%f0, 0(%r29)
9326 00091b8 	addi	%r2, %r2, -1
9327 00091bc 	addi	%r29, %r29, 1
9328 00091c0 	j	create_float_array_loop
9329 00091c4 min_caml_fneg:
9329 00091c4 	neg.s	%f0, %f0
9330 00091c8 	jr	%r31
9331 00091cc min_caml_read_int:
9331 00091cc 	lui	%r1, 0
9332 00091d0 	in	%r1
9333 00091d4 	lui	%r2, 0
9334 00091d8 	in	%r2
9335 00091dc 	sll	%r2, %r2, 8
9336 00091e0 	or	%r1, %r1, %r2
9337 00091e4 	lui	%r2, 0
9338 00091e8 	in	%r2
9339 00091ec 	sll	%r2, %r2, 16
9340 00091f0 	or	%r1, %r1, %r2
9341 00091f4 	lui	%r2, 0
9342 00091f8 	in	%r2
9343 00091fc 	sll	%r2, %r2, 24
9344 0009200 	or	%r1, %r1, %r2
9345 0009204 	jr	%r31
9346 0009208 min_caml_read_float:
9346 0009208 	lui	%r1, 0
9347 000920c 	in	%r1
9348 0009210 	lui	%r2, 0
9349 0009214 	in	%r2
9350 0009218 	sll	%r2, %r2, 8
9351 000921c 	or	%r1, %r1, %r2
9352 0009220 	lui	%r2, 0
9353 0009224 	in	%r2
9354 0009228 	sll	%r2, %r2, 16
9355 000922c 	or	%r1, %r1, %r2
9356 0009230 	lui	%r2, 0
9357 0009234 	in	%r2
9358 0009238 	sll	%r2, %r2, 24
9359 000923c 	or	%r1, %r1, %r2
9360 0009240 	sw	%r1, 0(%r30)
9361 0009244 	lw.s	%f0, 0(%r30)
9362 0009248 	jr	%r31
9363 000924c min_caml_print_char:
9363 000924c 	out	%r1
9364 0009250 	jr	%r31
